

Microchip MPLAB XC8 Assembler V2.10 build 88905656 
                                                                                               Fri Apr 17 23:07:14 2020

Microchip MPLAB XC8 C Compiler v2.10 (Free license) build 20190730164152 Og1 
     1                           	processor	18F27Q43
     2                           	fnconf	rparam,??,?,0
     3                           	opt	pw 120
     4                           	opt	flic
     5                           	psect	idataCOMRAM,global,class=CODE,delta=1,noexec
     6                           	psect	idataBANK5,global,class=CODE,delta=1,noexec
     7                           	psect	mediumconst,global,reloc=2,class=MEDIUMCONST,delta=1,noexec
     8                           	psect	nvCOMRAM,global,class=COMRAM,space=1,delta=1,noexec
     9                           	psect	nvBANK5,global,class=BANK5,space=1,delta=1,lowdata,noexec
    10                           	psect	cinit,global,reloc=2,class=CODE,delta=1
    11                           	psect	bssCOMRAM,global,class=COMRAM,space=1,delta=1,noexec
    12                           	psect	dataCOMRAM,global,class=COMRAM,space=1,delta=1,noexec
    13                           	psect	bssBANK5,global,class=BANK5,space=1,delta=1,lowdata,noexec
    14                           	psect	dataBANK5,global,class=BANK5,space=1,delta=1,lowdata,noexec
    15                           	psect	bssBIGRAM,global,class=BIGRAM,space=1,delta=1,lowdata,noexec
    16                           	psect	cstackBANK5,global,class=BANK5,space=1,delta=1,noexec
    17                           	psect	cstackCOMRAM,global,class=COMRAM,space=1,delta=1,noexec
    18                           	psect	text0,global,reloc=2,class=CODE,delta=1
    19                           	psect	text1,global,reloc=2,class=CODE,delta=1
    20                           	psect	text2,global,reloc=2,class=CODE,delta=1,group=2
    21                           	psect	text3,global,reloc=2,class=CODE,delta=1,group=1
    22                           	psect	text4,global,reloc=2,class=CODE,delta=1,group=1
    23                           	psect	text5,global,reloc=2,class=CODE,delta=1,group=1
    24                           	psect	text6,global,reloc=2,class=CODE,delta=1,group=1
    25                           	psect	text7,global,reloc=2,class=CODE,delta=1,group=1
    26                           	psect	text8,global,reloc=2,class=CODE,delta=1
    27                           	psect	text9,global,reloc=2,class=CODE,delta=1
    28                           	psect	text10,global,reloc=2,class=CODE,delta=1
    29                           	psect	text11,global,reloc=2,class=CODE,delta=1
    30                           	psect	text12,global,reloc=2,class=CODE,delta=1
    31                           	psect	text13,global,reloc=2,class=CODE,delta=1
    32                           	psect	text14,global,reloc=2,class=CODE,delta=1
    33                           	psect	text15,global,reloc=2,class=CODE,delta=1
    34                           	psect	text16,global,reloc=2,class=CODE,delta=1
    35                           	psect	text17,global,reloc=2,class=CODE,delta=1
    36                           	psect	text18,global,reloc=2,class=CODE,delta=1
    37                           	psect	text19,global,reloc=2,class=CODE,delta=1
    38                           	psect	text20,global,reloc=2,class=CODE,delta=1
    39                           	psect	text21,global,reloc=2,class=CODE,delta=1
    40                           	psect	text22,global,reloc=2,class=CODE,delta=1
    41                           	psect	text23,global,reloc=2,class=CODE,delta=1
    42                           	psect	text24,global,reloc=2,class=CODE,delta=1
    43                           	psect	text25,global,reloc=2,class=CODE,delta=1
    44                           	psect	text26,global,reloc=2,class=CODE,delta=1
    45                           	psect	text27,global,reloc=2,class=CODE,delta=1
    46                           	psect	text28,global,reloc=2,class=CODE,delta=1
    47                           	psect	text29,global,reloc=2,class=CODE,delta=1
    48                           	psect	ivt0x8,global,reloc=2,class=CODE,delta=1,noexec,keep,optim=
    49                           	psect	intsave_regs,global,class=BIGRAM,space=1,delta=1,noexec
    50                           	psect	text30,global,reloc=2,class=CODE,delta=1
    51                           	psect	rparam,global,class=COMRAM,space=1,delta=1,noexec
    52  0000                     
    53                           ; Version 2.10
    54                           ; Generated 31/07/2019 GMT
    55                           ; 
    56                           ; Copyright © 2019, Microchip Technology Inc. and its subsidiaries ("Microchip")
    57                           ; All rights reserved.
    58                           ; 
    59                           ; This software is developed by Microchip Technology Inc. and its subsidiaries ("Microch
      +                          ip").
    60                           ; 
    61                           ; Redistribution and use in source and binary forms, with or without modification, are
    62                           ; permitted provided that the following conditions are met:
    63                           ; 
    64                           ;     1. Redistributions of source code must retain the above copyright notice, this lis
      +                          t of
    65                           ;        conditions and the following disclaimer.
    66                           ; 
    67                           ;     2. Redistributions in binary form must reproduce the above copyright notice, this 
      +                          list
    68                           ;        of conditions and the following disclaimer in the documentation and/or other
    69                           ;        materials provided with the distribution.
    70                           ; 
    71                           ;     3. Microchip's name may not be used to endorse or promote products derived from th
      +                          is
    72                           ;        software without specific prior written permission.
    73                           ; 
    74                           ; THIS SOFTWARE IS PROVIDED BY MICROCHIP "AS IS" AND ANY EXPRESS OR IMPLIED WARRANTIES,
    75                           ; INCLUDING, BUT NOT LIMITED TO, THE IMPLIED WARRANTIES OF MERCHANTABILITY AND FITNESS F
      +                          OR
    76                           ; PURPOSE ARE DISCLAIMED.  IN NO EVENT SHALL MICROCHIP BE LIABLE FOR ANY DIRECT, INDIREC
      +                          T,
    77                           ; INCIDENTAL, SPECIAL, EXEMPLARY, OR CONSEQUENTIAL DAMAGES (INCLUDING BUT NOT LIMITED TO
    78                           ; PROCUREMENT OF SUBSTITUTE GOODS OR SERVICES; LOSS OF USE, DATA OR PROFITS; OR BUSINESS
    79                           ; INTERRUPTION) HOWSOEVER CAUSED AND ON ANY THEORY OF LIABILITY, WHETHER IN CONTRACT, ST
      +                          RICT
    80                           ; LIABILITY, OR TORT (INCLUDING NEGLIGENCE OR OTHERWISE) ARISING IN ANY WAY OUT OF THE U
      +                          SE OF
    81                           ; THIS SOFTWARE, EVEN IF ADVISED OF THE POSSIBILITY OF SUCH DAMAGE.
    82                           ; 
    83                           ; 
    84                           ; Code-generator required, PIC18F27Q43 Definitions
    85                           ; 
    86                           ; SFR Addresses
    87  0000                     
    88                           	psect	idataCOMRAM
    89  01141C                     __pidataCOMRAM:
    90                           	opt callstack 0
    91                           
    92                           ;initializer for _test
    93  01141C  0A                 	db	10
    94                           
    95                           	psect	idataBANK5
    96  011404                     __pidataBANK5:
    97                           	opt callstack 0
    98                           
    99                           ;initializer for _clockCounter
   100  011404  0001               	dw	1
   101  011406  0000               	dw	0
   102                           
   103                           ;initializer for _bitMask
   104  011408  0001               	dw	1
   105                           
   106                           ;initializer for _counterSave
   107  01140A  0001               	dw	1
   108  01140C  0000               	dw	0
   109                           
   110                           	psect	mediumconst
   111  00F7FE                     __pmediumconst:
   112                           	opt callstack 0
   113  00F7FE  00                 	db	0
   114  00F7FF                     _cosTab:
   115                           	opt callstack 0
   116  00F7FF  0FFF               	dw	4095
   117  00F801  0FFE               	dw	4094
   118  00F803  0FFE               	dw	4094
   119  00F805  0FFE               	dw	4094
   120  00F807  0FFE               	dw	4094
   121  00F809  0FFE               	dw	4094
   122  00F80B  0FFD               	dw	4093
   123  00F80D  0FFD               	dw	4093
   124  00F80F  0FFC               	dw	4092
   125  00F811  0FFB               	dw	4091
   126  00F813  0FFB               	dw	4091
   127  00F815  0FFA               	dw	4090
   128  00F817  0FF9               	dw	4089
   129  00F819  0FF8               	dw	4088
   130  00F81B  0FF7               	dw	4087
   131  00F81D  0FF6               	dw	4086
   132  00F81F  0FF5               	dw	4085
   133  00F821  0FF3               	dw	4083
   134  00F823  0FF2               	dw	4082
   135  00F825  0FF1               	dw	4081
   136  00F827  0FEF               	dw	4079
   137  00F829  0FEE               	dw	4078
   138  00F82B  0FEC               	dw	4076
   139  00F82D  0FEA               	dw	4074
   140  00F82F  0FE8               	dw	4072
   141  00F831  0FE6               	dw	4070
   142  00F833  0FE4               	dw	4068
   143  00F835  0FE2               	dw	4066
   144  00F837  0FE0               	dw	4064
   145  00F839  0FDE               	dw	4062
   146  00F83B  0FDC               	dw	4060
   147  00F83D  0FDA               	dw	4058
   148  00F83F  0FD7               	dw	4055
   149  00F841  0FD5               	dw	4053
   150  00F843  0FD2               	dw	4050
   151  00F845  0FCF               	dw	4047
   152  00F847  0FCD               	dw	4045
   153  00F849  0FCA               	dw	4042
   154  00F84B  0FC7               	dw	4039
   155  00F84D  0FC4               	dw	4036
   156  00F84F  0FC1               	dw	4033
   157  00F851  0FBE               	dw	4030
   158  00F853  0FBB               	dw	4027
   159  00F855  0FB8               	dw	4024
   160  00F857  0FB4               	dw	4020
   161  00F859  0FB1               	dw	4017
   162  00F85B  0FAD               	dw	4013
   163  00F85D  0FAA               	dw	4010
   164  00F85F  0FA6               	dw	4006
   165  00F861  0FA3               	dw	4003
   166  00F863  0F9F               	dw	3999
   167  00F865  0F9B               	dw	3995
   168  00F867  0F97               	dw	3991
   169  00F869  0F93               	dw	3987
   170  00F86B  0F8F               	dw	3983
   171  00F86D  0F8B               	dw	3979
   172  00F86F  0F87               	dw	3975
   173  00F871  0F83               	dw	3971
   174  00F873  0F7E               	dw	3966
   175  00F875  0F7A               	dw	3962
   176  00F877  0F75               	dw	3957
   177  00F879  0F71               	dw	3953
   178  00F87B  0F6C               	dw	3948
   179  00F87D  0F67               	dw	3943
   180  00F87F  0F63               	dw	3939
   181  00F881  0F5E               	dw	3934
   182  00F883  0F59               	dw	3929
   183  00F885  0F54               	dw	3924
   184  00F887  0F4F               	dw	3919
   185  00F889  0F4A               	dw	3914
   186  00F88B  0F45               	dw	3909
   187  00F88D  0F3F               	dw	3903
   188  00F88F  0F3A               	dw	3898
   189  00F891  0F35               	dw	3893
   190  00F893  0F2F               	dw	3887
   191  00F895  0F29               	dw	3881
   192  00F897  0F24               	dw	3876
   193  00F899  0F1E               	dw	3870
   194  00F89B  0F18               	dw	3864
   195  00F89D  0F13               	dw	3859
   196  00F89F  0F0D               	dw	3853
   197  00F8A1  0F07               	dw	3847
   198  00F8A3  0F01               	dw	3841
   199  00F8A5  0EFB               	dw	3835
   200  00F8A7  0EF5               	dw	3829
   201  00F8A9  0EEE               	dw	3822
   202  00F8AB  0EE8               	dw	3816
   203  00F8AD  0EE2               	dw	3810
   204  00F8AF  0EDB               	dw	3803
   205  00F8B1  0ED5               	dw	3797
   206  00F8B3  0ECE               	dw	3790
   207  00F8B5  0EC8               	dw	3784
   208  00F8B7  0EC1               	dw	3777
   209  00F8B9  0EBA               	dw	3770
   210  00F8BB  0EB3               	dw	3763
   211  00F8BD  0EAC               	dw	3756
   212  00F8BF  0EA5               	dw	3749
   213  00F8C1  0E9E               	dw	3742
   214  00F8C3  0E97               	dw	3735
   215  00F8C5  0E90               	dw	3728
   216  00F8C7  0E89               	dw	3721
   217  00F8C9  0E82               	dw	3714
   218  00F8CB  0E7A               	dw	3706
   219  00F8CD  0E73               	dw	3699
   220  00F8CF  0E6C               	dw	3692
   221  00F8D1  0E64               	dw	3684
   222  00F8D3  0E5C               	dw	3676
   223  00F8D5  0E55               	dw	3669
   224  00F8D7  0E4D               	dw	3661
   225  00F8D9  0E45               	dw	3653
   226  00F8DB  0E3E               	dw	3646
   227  00F8DD  0E36               	dw	3638
   228  00F8DF  0E2E               	dw	3630
   229  00F8E1  0E26               	dw	3622
   230  00F8E3  0E1E               	dw	3614
   231  00F8E5  0E16               	dw	3606
   232  00F8E7  0E0D               	dw	3597
   233  00F8E9  0E05               	dw	3589
   234  00F8EB  0DFD               	dw	3581
   235  00F8ED  0DF5               	dw	3573
   236  00F8EF  0DEC               	dw	3564
   237  00F8F1  0DE4               	dw	3556
   238  00F8F3  0DDB               	dw	3547
   239  00F8F5  0DD3               	dw	3539
   240  00F8F7  0DCA               	dw	3530
   241  00F8F9  0DC1               	dw	3521
   242  00F8FB  0DB8               	dw	3512
   243  00F8FD  0DB0               	dw	3504
   244  00F8FF  0DA7               	dw	3495
   245  00F901  0D9E               	dw	3486
   246  00F903  0D95               	dw	3477
   247  00F905  0D8C               	dw	3468
   248  00F907  0D83               	dw	3459
   249  00F909  0D7A               	dw	3450
   250  00F90B  0D71               	dw	3441
   251  00F90D  0D67               	dw	3431
   252  00F90F  0D5E               	dw	3422
   253  00F911  0D55               	dw	3413
   254  00F913  0D4B               	dw	3403
   255  00F915  0D42               	dw	3394
   256  00F917  0D38               	dw	3384
   257  00F919  0D2F               	dw	3375
   258  00F91B  0D25               	dw	3365
   259  00F91D  0D1C               	dw	3356
   260  00F91F  0D12               	dw	3346
   261  00F921  0D08               	dw	3336
   262  00F923  0CFE               	dw	3326
   263  00F925  0CF5               	dw	3317
   264  00F927  0CEB               	dw	3307
   265  00F929  0CE1               	dw	3297
   266  00F92B  0CD7               	dw	3287
   267  00F92D  0CCD               	dw	3277
   268  00F92F  0CC3               	dw	3267
   269  00F931  0CB9               	dw	3257
   270  00F933  0CAE               	dw	3246
   271  00F935  0CA4               	dw	3236
   272  00F937  0C9A               	dw	3226
   273  00F939  0C90               	dw	3216
   274  00F93B  0C85               	dw	3205
   275  00F93D  0C7B               	dw	3195
   276  00F93F  0C71               	dw	3185
   277  00F941  0C66               	dw	3174
   278  00F943  0C5C               	dw	3164
   279  00F945  0C51               	dw	3153
   280  00F947  0C46               	dw	3142
   281  00F949  0C3C               	dw	3132
   282  00F94B  0C31               	dw	3121
   283  00F94D  0C26               	dw	3110
   284  00F94F  0C1C               	dw	3100
   285  00F951  0C11               	dw	3089
   286  00F953  0C06               	dw	3078
   287  00F955  0BFB               	dw	3067
   288  00F957  0BF0               	dw	3056
   289  00F959  0BE5               	dw	3045
   290  00F95B  0BDA               	dw	3034
   291  00F95D  0BCF               	dw	3023
   292  00F95F  0BC4               	dw	3012
   293  00F961  0BB9               	dw	3001
   294  00F963  0BAE               	dw	2990
   295  00F965  0BA3               	dw	2979
   296  00F967  0B98               	dw	2968
   297  00F969  0B8C               	dw	2956
   298  00F96B  0B81               	dw	2945
   299  00F96D  0B76               	dw	2934
   300  00F96F  0B6A               	dw	2922
   301  00F971  0B5F               	dw	2911
   302  00F973  0B54               	dw	2900
   303  00F975  0B48               	dw	2888
   304  00F977  0B3D               	dw	2877
   305  00F979  0B31               	dw	2865
   306  00F97B  0B26               	dw	2854
   307  00F97D  0B1A               	dw	2842
   308  00F97F  0B0F               	dw	2831
   309  00F981  0B03               	dw	2819
   310  00F983  0AF7               	dw	2807
   311  00F985  0AEC               	dw	2796
   312  00F987  0AE0               	dw	2784
   313  00F989  0AD4               	dw	2772
   314  00F98B  0AC8               	dw	2760
   315  00F98D  0ABD               	dw	2749
   316  00F98F  0AB1               	dw	2737
   317  00F991  0AA5               	dw	2725
   318  00F993  0A99               	dw	2713
   319  00F995  0A8D               	dw	2701
   320  00F997  0A81               	dw	2689
   321  00F999  0A75               	dw	2677
   322  00F99B  0A69               	dw	2665
   323  00F99D  0A5D               	dw	2653
   324  00F99F  0A51               	dw	2641
   325  00F9A1  0A45               	dw	2629
   326  00F9A3  0A39               	dw	2617
   327  00F9A5  0A2D               	dw	2605
   328  00F9A7  0A21               	dw	2593
   329  00F9A9  0A15               	dw	2581
   330  00F9AB  0A09               	dw	2569
   331  00F9AD  09FD               	dw	2557
   332  00F9AF  09F1               	dw	2545
   333  00F9B1  09E4               	dw	2532
   334  00F9B3  09D8               	dw	2520
   335  00F9B5  09CC               	dw	2508
   336  00F9B7  09C0               	dw	2496
   337  00F9B9  09B3               	dw	2483
   338  00F9BB  09A7               	dw	2471
   339  00F9BD  099B               	dw	2459
   340  00F9BF  098E               	dw	2446
   341  00F9C1  0982               	dw	2434
   342  00F9C3  0976               	dw	2422
   343  00F9C5  0969               	dw	2409
   344  00F9C7  095D               	dw	2397
   345  00F9C9  0951               	dw	2385
   346  00F9CB  0944               	dw	2372
   347  00F9CD  0938               	dw	2360
   348  00F9CF  092B               	dw	2347
   349  00F9D1  091F               	dw	2335
   350  00F9D3  0913               	dw	2323
   351  00F9D5  0906               	dw	2310
   352  00F9D7  08FA               	dw	2298
   353  00F9D9  08ED               	dw	2285
   354  00F9DB  08E1               	dw	2273
   355  00F9DD  08D4               	dw	2260
   356  00F9DF  08C8               	dw	2248
   357  00F9E1  08BB               	dw	2235
   358  00F9E3  08AF               	dw	2223
   359  00F9E5  08A2               	dw	2210
   360  00F9E7  0896               	dw	2198
   361  00F9E9  0889               	dw	2185
   362  00F9EB  087D               	dw	2173
   363  00F9ED  0870               	dw	2160
   364  00F9EF  0863               	dw	2147
   365  00F9F1  0857               	dw	2135
   366  00F9F3  084A               	dw	2122
   367  00F9F5  083E               	dw	2110
   368  00F9F7  0831               	dw	2097
   369  00F9F9  0825               	dw	2085
   370  00F9FB  0818               	dw	2072
   371  00F9FD  080C               	dw	2060
   372  00F9FF  07FF               	dw	2047
   373  00FA01  07F2               	dw	2034
   374  00FA03  07E6               	dw	2022
   375  00FA05  07D9               	dw	2009
   376  00FA07  07CD               	dw	1997
   377  00FA09  07C0               	dw	1984
   378  00FA0B  07B4               	dw	1972
   379  00FA0D  07A7               	dw	1959
   380  00FA0F  079B               	dw	1947
   381  00FA11  078E               	dw	1934
   382  00FA13  0781               	dw	1921
   383  00FA15  0775               	dw	1909
   384  00FA17  0768               	dw	1896
   385  00FA19  075C               	dw	1884
   386  00FA1B  074F               	dw	1871
   387  00FA1D  0743               	dw	1859
   388  00FA1F  0736               	dw	1846
   389  00FA21  072A               	dw	1834
   390  00FA23  071D               	dw	1821
   391  00FA25  0711               	dw	1809
   392  00FA27  0704               	dw	1796
   393  00FA29  06F8               	dw	1784
   394  00FA2B  06EB               	dw	1771
   395  00FA2D  06DF               	dw	1759
   396  00FA2F  06D3               	dw	1747
   397  00FA31  06C6               	dw	1734
   398  00FA33  06BA               	dw	1722
   399  00FA35  06AD               	dw	1709
   400  00FA37  06A1               	dw	1697
   401  00FA39  0695               	dw	1685
   402  00FA3B  0688               	dw	1672
   403  00FA3D  067C               	dw	1660
   404  00FA3F  0670               	dw	1648
   405  00FA41  0663               	dw	1635
   406  00FA43  0657               	dw	1623
   407  00FA45  064B               	dw	1611
   408  00FA47  063E               	dw	1598
   409  00FA49  0632               	dw	1586
   410  00FA4B  0626               	dw	1574
   411  00FA4D  061A               	dw	1562
   412  00FA4F  060D               	dw	1549
   413  00FA51  0601               	dw	1537
   414  00FA53  05F5               	dw	1525
   415  00FA55  05E9               	dw	1513
   416  00FA57  05DD               	dw	1501
   417  00FA59  05D1               	dw	1489
   418  00FA5B  05C5               	dw	1477
   419  00FA5D  05B9               	dw	1465
   420  00FA5F  05AD               	dw	1453
   421  00FA61  05A1               	dw	1441
   422  00FA63  0595               	dw	1429
   423  00FA65  0589               	dw	1417
   424  00FA67  057D               	dw	1405
   425  00FA69  0571               	dw	1393
   426  00FA6B  0565               	dw	1381
   427  00FA6D  0559               	dw	1369
   428  00FA6F  054D               	dw	1357
   429  00FA71  0541               	dw	1345
   430  00FA73  0536               	dw	1334
   431  00FA75  052A               	dw	1322
   432  00FA77  051E               	dw	1310
   433  00FA79  0512               	dw	1298
   434  00FA7B  0507               	dw	1287
   435  00FA7D  04FB               	dw	1275
   436  00FA7F  04EF               	dw	1263
   437  00FA81  04E4               	dw	1252
   438  00FA83  04D8               	dw	1240
   439  00FA85  04CD               	dw	1229
   440  00FA87  04C1               	dw	1217
   441  00FA89  04B6               	dw	1206
   442  00FA8B  04AA               	dw	1194
   443  00FA8D  049F               	dw	1183
   444  00FA8F  0494               	dw	1172
   445  00FA91  0488               	dw	1160
   446  00FA93  047D               	dw	1149
   447  00FA95  0472               	dw	1138
   448  00FA97  0466               	dw	1126
   449  00FA99  045B               	dw	1115
   450  00FA9B  0450               	dw	1104
   451  00FA9D  0445               	dw	1093
   452  00FA9F  043A               	dw	1082
   453  00FAA1  042F               	dw	1071
   454  00FAA3  0424               	dw	1060
   455  00FAA5  0419               	dw	1049
   456  00FAA7  040E               	dw	1038
   457  00FAA9  0403               	dw	1027
   458  00FAAB  03F8               	dw	1016
   459  00FAAD  03ED               	dw	1005
   460  00FAAF  03E2               	dw	994
   461  00FAB1  03D8               	dw	984
   462  00FAB3  03CD               	dw	973
   463  00FAB5  03C2               	dw	962
   464  00FAB7  03B8               	dw	952
   465  00FAB9  03AD               	dw	941
   466  00FABB  03A2               	dw	930
   467  00FABD  0398               	dw	920
   468  00FABF  038D               	dw	909
   469  00FAC1  0383               	dw	899
   470  00FAC3  0379               	dw	889
   471  00FAC5  036E               	dw	878
   472  00FAC7  0364               	dw	868
   473  00FAC9  035A               	dw	858
   474  00FACB  0350               	dw	848
   475  00FACD  0345               	dw	837
   476  00FACF  033B               	dw	827
   477  00FAD1  0331               	dw	817
   478  00FAD3  0327               	dw	807
   479  00FAD5  031D               	dw	797
   480  00FAD7  0313               	dw	787
   481  00FAD9  0309               	dw	777
   482  00FADB  0300               	dw	768
   483  00FADD  02F6               	dw	758
   484  00FADF  02EC               	dw	748
   485  00FAE1  02E2               	dw	738
   486  00FAE3  02D9               	dw	729
   487  00FAE5  02CF               	dw	719
   488  00FAE7  02C6               	dw	710
   489  00FAE9  02BC               	dw	700
   490  00FAEB  02B3               	dw	691
   491  00FAED  02A9               	dw	681
   492  00FAEF  02A0               	dw	672
   493  00FAF1  0297               	dw	663
   494  00FAF3  028D               	dw	653
   495  00FAF5  0284               	dw	644
   496  00FAF7  027B               	dw	635
   497  00FAF9  0272               	dw	626
   498  00FAFB  0269               	dw	617
   499  00FAFD  0260               	dw	608
   500  00FAFF  0257               	dw	599
   501  00FB01  024E               	dw	590
   502  00FB03  0246               	dw	582
   503  00FB05  023D               	dw	573
   504  00FB07  0234               	dw	564
   505  00FB09  022B               	dw	555
   506  00FB0B  0223               	dw	547
   507  00FB0D  021A               	dw	538
   508  00FB0F  0212               	dw	530
   509  00FB11  0209               	dw	521
   510  00FB13  0201               	dw	513
   511  00FB15  01F9               	dw	505
   512  00FB17  01F1               	dw	497
   513  00FB19  01E8               	dw	488
   514  00FB1B  01E0               	dw	480
   515  00FB1D  01D8               	dw	472
   516  00FB1F  01D0               	dw	464
   517  00FB21  01C8               	dw	456
   518  00FB23  01C0               	dw	448
   519  00FB25  01B9               	dw	441
   520  00FB27  01B1               	dw	433
   521  00FB29  01A9               	dw	425
   522  00FB2B  01A2               	dw	418
   523  00FB2D  019A               	dw	410
   524  00FB2F  0192               	dw	402
   525  00FB31  018B               	dw	395
   526  00FB33  0184               	dw	388
   527  00FB35  017C               	dw	380
   528  00FB37  0175               	dw	373
   529  00FB39  016E               	dw	366
   530  00FB3B  0167               	dw	359
   531  00FB3D  0160               	dw	352
   532  00FB3F  0159               	dw	345
   533  00FB41  0152               	dw	338
   534  00FB43  014B               	dw	331
   535  00FB45  0144               	dw	324
   536  00FB47  013D               	dw	317
   537  00FB49  0136               	dw	310
   538  00FB4B  0130               	dw	304
   539  00FB4D  0129               	dw	297
   540  00FB4F  0123               	dw	291
   541  00FB51  011C               	dw	284
   542  00FB53  0116               	dw	278
   543  00FB55  0110               	dw	272
   544  00FB57  0109               	dw	265
   545  00FB59  0103               	dw	259
   546  00FB5B  00FD               	dw	253
   547  00FB5D  00F7               	dw	247
   548  00FB5F  00F1               	dw	241
   549  00FB61  00EB               	dw	235
   550  00FB63  00E6               	dw	230
   551  00FB65  00E0               	dw	224
   552  00FB67  00DA               	dw	218
   553  00FB69  00D5               	dw	213
   554  00FB6B  00CF               	dw	207
   555  00FB6D  00C9               	dw	201
   556  00FB6F  00C4               	dw	196
   557  00FB71  00BF               	dw	191
   558  00FB73  00B9               	dw	185
   559  00FB75  00B4               	dw	180
   560  00FB77  00AF               	dw	175
   561  00FB79  00AA               	dw	170
   562  00FB7B  00A5               	dw	165
   563  00FB7D  00A0               	dw	160
   564  00FB7F  009B               	dw	155
   565  00FB81  0097               	dw	151
   566  00FB83  0092               	dw	146
   567  00FB85  008D               	dw	141
   568  00FB87  0089               	dw	137
   569  00FB89  0084               	dw	132
   570  00FB8B  0080               	dw	128
   571  00FB8D  007B               	dw	123
   572  00FB8F  0077               	dw	119
   573  00FB91  0073               	dw	115
   574  00FB93  006F               	dw	111
   575  00FB95  006B               	dw	107
   576  00FB97  0067               	dw	103
   577  00FB99  0063               	dw	99
   578  00FB9B  005F               	dw	95
   579  00FB9D  005B               	dw	91
   580  00FB9F  0058               	dw	88
   581  00FBA1  0054               	dw	84
   582  00FBA3  0051               	dw	81
   583  00FBA5  004D               	dw	77
   584  00FBA7  004A               	dw	74
   585  00FBA9  0046               	dw	70
   586  00FBAB  0043               	dw	67
   587  00FBAD  0040               	dw	64
   588  00FBAF  003D               	dw	61
   589  00FBB1  003A               	dw	58
   590  00FBB3  0037               	dw	55
   591  00FBB5  0034               	dw	52
   592  00FBB7  0031               	dw	49
   593  00FBB9  002F               	dw	47
   594  00FBBB  002C               	dw	44
   595  00FBBD  0029               	dw	41
   596  00FBBF  0027               	dw	39
   597  00FBC1  0024               	dw	36
   598  00FBC3  0022               	dw	34
   599  00FBC5  0020               	dw	32
   600  00FBC7  001E               	dw	30
   601  00FBC9  001C               	dw	28
   602  00FBCB  001A               	dw	26
   603  00FBCD  0018               	dw	24
   604  00FBCF  0016               	dw	22
   605  00FBD1  0014               	dw	20
   606  00FBD3  0012               	dw	18
   607  00FBD5  0010               	dw	16
   608  00FBD7  000F               	dw	15
   609  00FBD9  000D               	dw	13
   610  00FBDB  000C               	dw	12
   611  00FBDD  000B               	dw	11
   612  00FBDF  0009               	dw	9
   613  00FBE1  0008               	dw	8
   614  00FBE3  0007               	dw	7
   615  00FBE5  0006               	dw	6
   616  00FBE7  0005               	dw	5
   617  00FBE9  0004               	dw	4
   618  00FBEB  0003               	dw	3
   619  00FBED  0003               	dw	3
   620  00FBEF  0002               	dw	2
   621  00FBF1  0001               	dw	1
   622  00FBF3  0001               	dw	1
   623  00FBF5  0000               	dw	0
   624  00FBF7  0000               	dw	0
   625  00FBF9  0000               	dw	0
   626  00FBFB  0000               	dw	0
   627  00FBFD  0000               	dw	0
   628  00FBFF  0000               	dw	0
   629  00FC01  0000               	dw	0
   630  00FC03  0000               	dw	0
   631  00FC05  0000               	dw	0
   632  00FC07  0000               	dw	0
   633  00FC09  0000               	dw	0
   634  00FC0B  0001               	dw	1
   635  00FC0D  0001               	dw	1
   636  00FC0F  0002               	dw	2
   637  00FC11  0003               	dw	3
   638  00FC13  0003               	dw	3
   639  00FC15  0004               	dw	4
   640  00FC17  0005               	dw	5
   641  00FC19  0006               	dw	6
   642  00FC1B  0007               	dw	7
   643  00FC1D  0008               	dw	8
   644  00FC1F  0009               	dw	9
   645  00FC21  000B               	dw	11
   646  00FC23  000C               	dw	12
   647  00FC25  000D               	dw	13
   648  00FC27  000F               	dw	15
   649  00FC29  0010               	dw	16
   650  00FC2B  0012               	dw	18
   651  00FC2D  0014               	dw	20
   652  00FC2F  0016               	dw	22
   653  00FC31  0018               	dw	24
   654  00FC33  001A               	dw	26
   655  00FC35  001C               	dw	28
   656  00FC37  001E               	dw	30
   657  00FC39  0020               	dw	32
   658  00FC3B  0022               	dw	34
   659  00FC3D  0024               	dw	36
   660  00FC3F  0027               	dw	39
   661  00FC41  0029               	dw	41
   662  00FC43  002C               	dw	44
   663  00FC45  002F               	dw	47
   664  00FC47  0031               	dw	49
   665  00FC49  0034               	dw	52
   666  00FC4B  0037               	dw	55
   667  00FC4D  003A               	dw	58
   668  00FC4F  003D               	dw	61
   669  00FC51  0040               	dw	64
   670  00FC53  0043               	dw	67
   671  00FC55  0046               	dw	70
   672  00FC57  004A               	dw	74
   673  00FC59  004D               	dw	77
   674  00FC5B  0051               	dw	81
   675  00FC5D  0054               	dw	84
   676  00FC5F  0058               	dw	88
   677  00FC61  005B               	dw	91
   678  00FC63  005F               	dw	95
   679  00FC65  0063               	dw	99
   680  00FC67  0067               	dw	103
   681  00FC69  006B               	dw	107
   682  00FC6B  006F               	dw	111
   683  00FC6D  0073               	dw	115
   684  00FC6F  0077               	dw	119
   685  00FC71  007B               	dw	123
   686  00FC73  0080               	dw	128
   687  00FC75  0084               	dw	132
   688  00FC77  0089               	dw	137
   689  00FC79  008D               	dw	141
   690  00FC7B  0092               	dw	146
   691  00FC7D  0097               	dw	151
   692  00FC7F  009B               	dw	155
   693  00FC81  00A0               	dw	160
   694  00FC83  00A5               	dw	165
   695  00FC85  00AA               	dw	170
   696  00FC87  00AF               	dw	175
   697  00FC89  00B4               	dw	180
   698  00FC8B  00B9               	dw	185
   699  00FC8D  00BF               	dw	191
   700  00FC8F  00C4               	dw	196
   701  00FC91  00C9               	dw	201
   702  00FC93  00CF               	dw	207
   703  00FC95  00D5               	dw	213
   704  00FC97  00DA               	dw	218
   705  00FC99  00E0               	dw	224
   706  00FC9B  00E6               	dw	230
   707  00FC9D  00EB               	dw	235
   708  00FC9F  00F1               	dw	241
   709  00FCA1  00F7               	dw	247
   710  00FCA3  00FD               	dw	253
   711  00FCA5  0103               	dw	259
   712  00FCA7  0109               	dw	265
   713  00FCA9  0110               	dw	272
   714  00FCAB  0116               	dw	278
   715  00FCAD  011C               	dw	284
   716  00FCAF  0123               	dw	291
   717  00FCB1  0129               	dw	297
   718  00FCB3  0130               	dw	304
   719  00FCB5  0136               	dw	310
   720  00FCB7  013D               	dw	317
   721  00FCB9  0144               	dw	324
   722  00FCBB  014B               	dw	331
   723  00FCBD  0152               	dw	338
   724  00FCBF  0159               	dw	345
   725  00FCC1  0160               	dw	352
   726  00FCC3  0167               	dw	359
   727  00FCC5  016E               	dw	366
   728  00FCC7  0175               	dw	373
   729  00FCC9  017C               	dw	380
   730  00FCCB  0184               	dw	388
   731  00FCCD  018B               	dw	395
   732  00FCCF  0192               	dw	402
   733  00FCD1  019A               	dw	410
   734  00FCD3  01A2               	dw	418
   735  00FCD5  01A9               	dw	425
   736  00FCD7  01B1               	dw	433
   737  00FCD9  01B9               	dw	441
   738  00FCDB  01C0               	dw	448
   739  00FCDD  01C8               	dw	456
   740  00FCDF  01D0               	dw	464
   741  00FCE1  01D8               	dw	472
   742  00FCE3  01E0               	dw	480
   743  00FCE5  01E8               	dw	488
   744  00FCE7  01F1               	dw	497
   745  00FCE9  01F9               	dw	505
   746  00FCEB  0201               	dw	513
   747  00FCED  0209               	dw	521
   748  00FCEF  0212               	dw	530
   749  00FCF1  021A               	dw	538
   750  00FCF3  0223               	dw	547
   751  00FCF5  022B               	dw	555
   752  00FCF7  0234               	dw	564
   753  00FCF9  023D               	dw	573
   754  00FCFB  0246               	dw	582
   755  00FCFD  024E               	dw	590
   756  00FCFF  0257               	dw	599
   757  00FD01  0260               	dw	608
   758  00FD03  0269               	dw	617
   759  00FD05  0272               	dw	626
   760  00FD07  027B               	dw	635
   761  00FD09  0284               	dw	644
   762  00FD0B  028D               	dw	653
   763  00FD0D  0297               	dw	663
   764  00FD0F  02A0               	dw	672
   765  00FD11  02A9               	dw	681
   766  00FD13  02B3               	dw	691
   767  00FD15  02BC               	dw	700
   768  00FD17  02C6               	dw	710
   769  00FD19  02CF               	dw	719
   770  00FD1B  02D9               	dw	729
   771  00FD1D  02E2               	dw	738
   772  00FD1F  02EC               	dw	748
   773  00FD21  02F6               	dw	758
   774  00FD23  0300               	dw	768
   775  00FD25  0309               	dw	777
   776  00FD27  0313               	dw	787
   777  00FD29  031D               	dw	797
   778  00FD2B  0327               	dw	807
   779  00FD2D  0331               	dw	817
   780  00FD2F  033B               	dw	827
   781  00FD31  0345               	dw	837
   782  00FD33  0350               	dw	848
   783  00FD35  035A               	dw	858
   784  00FD37  0364               	dw	868
   785  00FD39  036E               	dw	878
   786  00FD3B  0379               	dw	889
   787  00FD3D  0383               	dw	899
   788  00FD3F  038D               	dw	909
   789  00FD41  0398               	dw	920
   790  00FD43  03A2               	dw	930
   791  00FD45  03AD               	dw	941
   792  00FD47  03B8               	dw	952
   793  00FD49  03C2               	dw	962
   794  00FD4B  03CD               	dw	973
   795  00FD4D  03D8               	dw	984
   796  00FD4F  03E2               	dw	994
   797  00FD51  03ED               	dw	1005
   798  00FD53  03F8               	dw	1016
   799  00FD55  0403               	dw	1027
   800  00FD57  040E               	dw	1038
   801  00FD59  0419               	dw	1049
   802  00FD5B  0424               	dw	1060
   803  00FD5D  042F               	dw	1071
   804  00FD5F  043A               	dw	1082
   805  00FD61  0445               	dw	1093
   806  00FD63  0450               	dw	1104
   807  00FD65  045B               	dw	1115
   808  00FD67  0466               	dw	1126
   809  00FD69  0472               	dw	1138
   810  00FD6B  047D               	dw	1149
   811  00FD6D  0488               	dw	1160
   812  00FD6F  0494               	dw	1172
   813  00FD71  049F               	dw	1183
   814  00FD73  04AA               	dw	1194
   815  00FD75  04B6               	dw	1206
   816  00FD77  04C1               	dw	1217
   817  00FD79  04CD               	dw	1229
   818  00FD7B  04D8               	dw	1240
   819  00FD7D  04E4               	dw	1252
   820  00FD7F  04EF               	dw	1263
   821  00FD81  04FB               	dw	1275
   822  00FD83  0507               	dw	1287
   823  00FD85  0512               	dw	1298
   824  00FD87  051E               	dw	1310
   825  00FD89  052A               	dw	1322
   826  00FD8B  0536               	dw	1334
   827  00FD8D  0541               	dw	1345
   828  00FD8F  054D               	dw	1357
   829  00FD91  0559               	dw	1369
   830  00FD93  0565               	dw	1381
   831  00FD95  0571               	dw	1393
   832  00FD97  057D               	dw	1405
   833  00FD99  0589               	dw	1417
   834  00FD9B  0595               	dw	1429
   835  00FD9D  05A1               	dw	1441
   836  00FD9F  05AD               	dw	1453
   837  00FDA1  05B9               	dw	1465
   838  00FDA3  05C5               	dw	1477
   839  00FDA5  05D1               	dw	1489
   840  00FDA7  05DD               	dw	1501
   841  00FDA9  05E9               	dw	1513
   842  00FDAB  05F5               	dw	1525
   843  00FDAD  0601               	dw	1537
   844  00FDAF  060D               	dw	1549
   845  00FDB1  061A               	dw	1562
   846  00FDB3  0626               	dw	1574
   847  00FDB5  0632               	dw	1586
   848  00FDB7  063E               	dw	1598
   849  00FDB9  064B               	dw	1611
   850  00FDBB  0657               	dw	1623
   851  00FDBD  0663               	dw	1635
   852  00FDBF  0670               	dw	1648
   853  00FDC1  067C               	dw	1660
   854  00FDC3  0688               	dw	1672
   855  00FDC5  0695               	dw	1685
   856  00FDC7  06A1               	dw	1697
   857  00FDC9  06AD               	dw	1709
   858  00FDCB  06BA               	dw	1722
   859  00FDCD  06C6               	dw	1734
   860  00FDCF  06D3               	dw	1747
   861  00FDD1  06DF               	dw	1759
   862  00FDD3  06EB               	dw	1771
   863  00FDD5  06F8               	dw	1784
   864  00FDD7  0704               	dw	1796
   865  00FDD9  0711               	dw	1809
   866  00FDDB  071D               	dw	1821
   867  00FDDD  072A               	dw	1834
   868  00FDDF  0736               	dw	1846
   869  00FDE1  0743               	dw	1859
   870  00FDE3  074F               	dw	1871
   871  00FDE5  075C               	dw	1884
   872  00FDE7  0768               	dw	1896
   873  00FDE9  0775               	dw	1909
   874  00FDEB  0781               	dw	1921
   875  00FDED  078E               	dw	1934
   876  00FDEF  079B               	dw	1947
   877  00FDF1  07A7               	dw	1959
   878  00FDF3  07B4               	dw	1972
   879  00FDF5  07C0               	dw	1984
   880  00FDF7  07CD               	dw	1997
   881  00FDF9  07D9               	dw	2009
   882  00FDFB  07E6               	dw	2022
   883  00FDFD  07F2               	dw	2034
   884  00FDFF  07FF               	dw	2047
   885  00FE01  080C               	dw	2060
   886  00FE03  0818               	dw	2072
   887  00FE05  0825               	dw	2085
   888  00FE07  0831               	dw	2097
   889  00FE09  083E               	dw	2110
   890  00FE0B  084A               	dw	2122
   891  00FE0D  0857               	dw	2135
   892  00FE0F  0863               	dw	2147
   893  00FE11  0870               	dw	2160
   894  00FE13  087D               	dw	2173
   895  00FE15  0889               	dw	2185
   896  00FE17  0896               	dw	2198
   897  00FE19  08A2               	dw	2210
   898  00FE1B  08AF               	dw	2223
   899  00FE1D  08BB               	dw	2235
   900  00FE1F  08C8               	dw	2248
   901  00FE21  08D4               	dw	2260
   902  00FE23  08E1               	dw	2273
   903  00FE25  08ED               	dw	2285
   904  00FE27  08FA               	dw	2298
   905  00FE29  0906               	dw	2310
   906  00FE2B  0913               	dw	2323
   907  00FE2D  091F               	dw	2335
   908  00FE2F  092B               	dw	2347
   909  00FE31  0938               	dw	2360
   910  00FE33  0944               	dw	2372
   911  00FE35  0951               	dw	2385
   912  00FE37  095D               	dw	2397
   913  00FE39  0969               	dw	2409
   914  00FE3B  0976               	dw	2422
   915  00FE3D  0982               	dw	2434
   916  00FE3F  098E               	dw	2446
   917  00FE41  099B               	dw	2459
   918  00FE43  09A7               	dw	2471
   919  00FE45  09B3               	dw	2483
   920  00FE47  09C0               	dw	2496
   921  00FE49  09CC               	dw	2508
   922  00FE4B  09D8               	dw	2520
   923  00FE4D  09E4               	dw	2532
   924  00FE4F  09F1               	dw	2545
   925  00FE51  09FD               	dw	2557
   926  00FE53  0A09               	dw	2569
   927  00FE55  0A15               	dw	2581
   928  00FE57  0A21               	dw	2593
   929  00FE59  0A2D               	dw	2605
   930  00FE5B  0A39               	dw	2617
   931  00FE5D  0A45               	dw	2629
   932  00FE5F  0A51               	dw	2641
   933  00FE61  0A5D               	dw	2653
   934  00FE63  0A69               	dw	2665
   935  00FE65  0A75               	dw	2677
   936  00FE67  0A81               	dw	2689
   937  00FE69  0A8D               	dw	2701
   938  00FE6B  0A99               	dw	2713
   939  00FE6D  0AA5               	dw	2725
   940  00FE6F  0AB1               	dw	2737
   941  00FE71  0ABD               	dw	2749
   942  00FE73  0AC8               	dw	2760
   943  00FE75  0AD4               	dw	2772
   944  00FE77  0AE0               	dw	2784
   945  00FE79  0AEC               	dw	2796
   946  00FE7B  0AF7               	dw	2807
   947  00FE7D  0B03               	dw	2819
   948  00FE7F  0B0F               	dw	2831
   949  00FE81  0B1A               	dw	2842
   950  00FE83  0B26               	dw	2854
   951  00FE85  0B31               	dw	2865
   952  00FE87  0B3D               	dw	2877
   953  00FE89  0B48               	dw	2888
   954  00FE8B  0B54               	dw	2900
   955  00FE8D  0B5F               	dw	2911
   956  00FE8F  0B6A               	dw	2922
   957  00FE91  0B76               	dw	2934
   958  00FE93  0B81               	dw	2945
   959  00FE95  0B8C               	dw	2956
   960  00FE97  0B98               	dw	2968
   961  00FE99  0BA3               	dw	2979
   962  00FE9B  0BAE               	dw	2990
   963  00FE9D  0BB9               	dw	3001
   964  00FE9F  0BC4               	dw	3012
   965  00FEA1  0BCF               	dw	3023
   966  00FEA3  0BDA               	dw	3034
   967  00FEA5  0BE5               	dw	3045
   968  00FEA7  0BF0               	dw	3056
   969  00FEA9  0BFB               	dw	3067
   970  00FEAB  0C06               	dw	3078
   971  00FEAD  0C11               	dw	3089
   972  00FEAF  0C1C               	dw	3100
   973  00FEB1  0C26               	dw	3110
   974  00FEB3  0C31               	dw	3121
   975  00FEB5  0C3C               	dw	3132
   976  00FEB7  0C46               	dw	3142
   977  00FEB9  0C51               	dw	3153
   978  00FEBB  0C5C               	dw	3164
   979  00FEBD  0C66               	dw	3174
   980  00FEBF  0C71               	dw	3185
   981  00FEC1  0C7B               	dw	3195
   982  00FEC3  0C85               	dw	3205
   983  00FEC5  0C90               	dw	3216
   984  00FEC7  0C9A               	dw	3226
   985  00FEC9  0CA4               	dw	3236
   986  00FECB  0CAE               	dw	3246
   987  00FECD  0CB9               	dw	3257
   988  00FECF  0CC3               	dw	3267
   989  00FED1  0CCD               	dw	3277
   990  00FED3  0CD7               	dw	3287
   991  00FED5  0CE1               	dw	3297
   992  00FED7  0CEB               	dw	3307
   993  00FED9  0CF5               	dw	3317
   994  00FEDB  0CFE               	dw	3326
   995  00FEDD  0D08               	dw	3336
   996  00FEDF  0D12               	dw	3346
   997  00FEE1  0D1C               	dw	3356
   998  00FEE3  0D25               	dw	3365
   999  00FEE5  0D2F               	dw	3375
  1000  00FEE7  0D38               	dw	3384
  1001  00FEE9  0D42               	dw	3394
  1002  00FEEB  0D4B               	dw	3403
  1003  00FEED  0D55               	dw	3413
  1004  00FEEF  0D5E               	dw	3422
  1005  00FEF1  0D67               	dw	3431
  1006  00FEF3  0D71               	dw	3441
  1007  00FEF5  0D7A               	dw	3450
  1008  00FEF7  0D83               	dw	3459
  1009  00FEF9  0D8C               	dw	3468
  1010  00FEFB  0D95               	dw	3477
  1011  00FEFD  0D9E               	dw	3486
  1012  00FEFF  0DA7               	dw	3495
  1013  00FF01  0DB0               	dw	3504
  1014  00FF03  0DB8               	dw	3512
  1015  00FF05  0DC1               	dw	3521
  1016  00FF07  0DCA               	dw	3530
  1017  00FF09  0DD3               	dw	3539
  1018  00FF0B  0DDB               	dw	3547
  1019  00FF0D  0DE4               	dw	3556
  1020  00FF0F  0DEC               	dw	3564
  1021  00FF11  0DF5               	dw	3573
  1022  00FF13  0DFD               	dw	3581
  1023  00FF15  0E05               	dw	3589
  1024  00FF17  0E0D               	dw	3597
  1025  00FF19  0E16               	dw	3606
  1026  00FF1B  0E1E               	dw	3614
  1027  00FF1D  0E26               	dw	3622
  1028  00FF1F  0E2E               	dw	3630
  1029  00FF21  0E36               	dw	3638
  1030  00FF23  0E3E               	dw	3646
  1031  00FF25  0E45               	dw	3653
  1032  00FF27  0E4D               	dw	3661
  1033  00FF29  0E55               	dw	3669
  1034  00FF2B  0E5C               	dw	3676
  1035  00FF2D  0E64               	dw	3684
  1036  00FF2F  0E6C               	dw	3692
  1037  00FF31  0E73               	dw	3699
  1038  00FF33  0E7A               	dw	3706
  1039  00FF35  0E82               	dw	3714
  1040  00FF37  0E89               	dw	3721
  1041  00FF39  0E90               	dw	3728
  1042  00FF3B  0E97               	dw	3735
  1043  00FF3D  0E9E               	dw	3742
  1044  00FF3F  0EA5               	dw	3749
  1045  00FF41  0EAC               	dw	3756
  1046  00FF43  0EB3               	dw	3763
  1047  00FF45  0EBA               	dw	3770
  1048  00FF47  0EC1               	dw	3777
  1049  00FF49  0EC8               	dw	3784
  1050  00FF4B  0ECE               	dw	3790
  1051  00FF4D  0ED5               	dw	3797
  1052  00FF4F  0EDB               	dw	3803
  1053  00FF51  0EE2               	dw	3810
  1054  00FF53  0EE8               	dw	3816
  1055  00FF55  0EEE               	dw	3822
  1056  00FF57  0EF5               	dw	3829
  1057  00FF59  0EFB               	dw	3835
  1058  00FF5B  0F01               	dw	3841
  1059  00FF5D  0F07               	dw	3847
  1060  00FF5F  0F0D               	dw	3853
  1061  00FF61  0F13               	dw	3859
  1062  00FF63  0F18               	dw	3864
  1063  00FF65  0F1E               	dw	3870
  1064  00FF67  0F24               	dw	3876
  1065  00FF69  0F29               	dw	3881
  1066  00FF6B  0F2F               	dw	3887
  1067  00FF6D  0F35               	dw	3893
  1068  00FF6F  0F3A               	dw	3898
  1069  00FF71  0F3F               	dw	3903
  1070  00FF73  0F45               	dw	3909
  1071  00FF75  0F4A               	dw	3914
  1072  00FF77  0F4F               	dw	3919
  1073  00FF79  0F54               	dw	3924
  1074  00FF7B  0F59               	dw	3929
  1075  00FF7D  0F5E               	dw	3934
  1076  00FF7F  0F63               	dw	3939
  1077  00FF81  0F67               	dw	3943
  1078  00FF83  0F6C               	dw	3948
  1079  00FF85  0F71               	dw	3953
  1080  00FF87  0F75               	dw	3957
  1081  00FF89  0F7A               	dw	3962
  1082  00FF8B  0F7E               	dw	3966
  1083  00FF8D  0F83               	dw	3971
  1084  00FF8F  0F87               	dw	3975
  1085  00FF91  0F8B               	dw	3979
  1086  00FF93  0F8F               	dw	3983
  1087  00FF95  0F93               	dw	3987
  1088  00FF97  0F97               	dw	3991
  1089  00FF99  0F9B               	dw	3995
  1090  00FF9B  0F9F               	dw	3999
  1091  00FF9D  0FA3               	dw	4003
  1092  00FF9F  0FA6               	dw	4006
  1093  00FFA1  0FAA               	dw	4010
  1094  00FFA3  0FAD               	dw	4013
  1095  00FFA5  0FB1               	dw	4017
  1096  00FFA7  0FB4               	dw	4020
  1097  00FFA9  0FB8               	dw	4024
  1098  00FFAB  0FBB               	dw	4027
  1099  00FFAD  0FBE               	dw	4030
  1100  00FFAF  0FC1               	dw	4033
  1101  00FFB1  0FC4               	dw	4036
  1102  00FFB3  0FC7               	dw	4039
  1103  00FFB5  0FCA               	dw	4042
  1104  00FFB7  0FCD               	dw	4045
  1105  00FFB9  0FCF               	dw	4047
  1106  00FFBB  0FD2               	dw	4050
  1107  00FFBD  0FD5               	dw	4053
  1108  00FFBF  0FD7               	dw	4055
  1109  00FFC1  0FDA               	dw	4058
  1110  00FFC3  0FDC               	dw	4060
  1111  00FFC5  0FDE               	dw	4062
  1112  00FFC7  0FE0               	dw	4064
  1113  00FFC9  0FE2               	dw	4066
  1114  00FFCB  0FE4               	dw	4068
  1115  00FFCD  0FE6               	dw	4070
  1116  00FFCF  0FE8               	dw	4072
  1117  00FFD1  0FEA               	dw	4074
  1118  00FFD3  0FEC               	dw	4076
  1119  00FFD5  0FEE               	dw	4078
  1120  00FFD7  0FEF               	dw	4079
  1121  00FFD9  0FF1               	dw	4081
  1122  00FFDB  0FF2               	dw	4082
  1123  00FFDD  0FF3               	dw	4083
  1124  00FFDF  0FF5               	dw	4085
  1125  00FFE1  0FF6               	dw	4086
  1126  00FFE3  0FF7               	dw	4087
  1127  00FFE5  0FF8               	dw	4088
  1128  00FFE7  0FF9               	dw	4089
  1129  00FFE9  0FFA               	dw	4090
  1130  00FFEB  0FFB               	dw	4091
  1131  00FFED  0FFB               	dw	4091
  1132  00FFEF  0FFC               	dw	4092
  1133  00FFF1  0FFD               	dw	4093
  1134  00FFF3  0FFD               	dw	4093
  1135  00FFF5  0FFE               	dw	4094
  1136  00FFF7  0FFE               	dw	4094
  1137  00FFF9  0FFE               	dw	4094
  1138  00FFFB  0FFE               	dw	4094
  1139  00FFFD  0FFE               	dw	4094
  1140  00FFFF                     __end_of_cosTab:
  1141                           	opt callstack 0
  1142  00FFFF  00                 	db	0	; dummy byte at the end
  1143  0000                     
  1144                           	psect	nvCOMRAM
  1145  000548                     __pnvCOMRAM:
  1146                           	opt callstack 0
  1147  000548                     _mask2:
  1148                           	opt callstack 0
  1149  000548                     	ds	1
  1150                           
  1151                           	psect	nvBANK5
  1152  0005EA                     __pnvBANK5:
  1153                           	opt callstack 0
  1154  0005EA                     _TMR1_InterruptHandler:
  1155                           	opt callstack 0
  1156  0005EA                     	ds	3
  1157  0005ED                     _mask1:
  1158                           	opt callstack 0
  1159  0005ED                     	ds	2
  1160  0005EF                     _timer1ReloadVal:
  1161                           	opt callstack 0
  1162  0005EF                     	ds	2
  1163  0000                     _CM1CON0bits	set	112
  1164  0000                     _CM1PCH	set	115
  1165  0000                     _CM1NCH	set	114
  1166  0000                     _CM1CON1	set	113
  1167  0000                     _CM1CON0	set	112
  1168  0000                     _CM2CON0bits	set	116
  1169  0000                     _CM2PCH	set	119
  1170  0000                     _CM2NCH	set	118
  1171  0000                     _CM2CON1	set	117
  1172  0000                     _CM2CON0	set	116
  1173  0000                     _PMD8	set	104
  1174  0000                     _PMD7	set	103
  1175  0000                     _PMD6	set	102
  1176  0000                     _PMD5	set	101
  1177  0000                     _PMD4	set	100
  1178  0000                     _PMD3	set	99
  1179  0000                     _PMD1	set	97
  1180  0000                     _PMD0	set	96
  1181  0000                     _ACTCON	set	172
  1182  0000                     _OSCTUNE	set	176
  1183  0000                     _OSCFRQ	set	177
  1184  0000                     _OSCEN	set	179
  1185  0000                     _OSCCON3	set	175
  1186  0000                     _OSCCON1	set	173
  1187  0000                     _DAC1DATL	set	125
  1188  0000                     _DAC1CON	set	127
  1189  0000                     _RA4PPS	set	517
  1190  0000                     _RC4I2C	set	646
  1191  0000                     _RC3I2C	set	647
  1192  0000                     _RB2I2C	set	648
  1193  0000                     _RB1I2C	set	649
  1194  0000                     _T1GCONbits	set	799
  1195  0000                     _T1CONbits	set	798
  1196  0000                     _T1CON	set	798
  1197  0000                     _TMR1L	set	796
  1198  0000                     _TMR1H	set	797
  1199  0000                     _T1CLK	set	801
  1200  0000                     _T1GATE	set	800
  1201  0000                     _T1GCON	set	799
  1202  0000                     _ADCON1bits	set	1012
  1203  0000                     _ADERRL	set	989
  1204  0000                     _ADERRH	set	990
  1205  0000                     _ADPREVL	set	1000
  1206  0000                     _ADPREVH	set	1001
  1207  0000                     _ADFLTRL	set	993
  1208  0000                     _ADFLTRH	set	994
  1209  0000                     _ADSTATbits	set	1015
  1210  0000                     _ADACCL	set	995
  1211  0000                     _ADACCH	set	996
  1212  0000                     _ADCON2bits	set	1013
  1213  0000                     _ADCNT	set	998
  1214  0000                     _ADCON3bits	set	1014
  1215  0000                     _ADRESL	set	1002
  1216  0000                     _ADRESH	set	1003
  1217  0000                     _ADCON0bits	set	1011
  1218  0000                     _ADCON0	set	1011
  1219  0000                     _ADCLK	set	1018
  1220  0000                     _ADACT	set	1017
  1221  0000                     _ADREF	set	1016
  1222  0000                     _ADSTAT	set	1015
  1223  0000                     _ADCON3	set	1014
  1224  0000                     _ADCON2	set	1013
  1225  0000                     _ADCON1	set	1012
  1226  0000                     _ADPREH	set	1010
  1227  0000                     _ADPREL	set	1009
  1228  0000                     _ADCAP	set	1008
  1229  0000                     _ADACQH	set	1007
  1230  0000                     _ADACQL	set	1006
  1231  0000                     _ADPCH	set	1004
  1232  0000                     _ADRPT	set	999
  1233  0000                     _ADACCU	set	997
  1234  0000                     _ADSTPTH	set	992
  1235  0000                     _ADSTPTL	set	991
  1236  0000                     _ADUTHH	set	988
  1237  0000                     _ADUTHL	set	987
  1238  0000                     _ADLTHH	set	986
  1239  0000                     _ADLTHL	set	985
  1240  0000                     _FVRCONbits	set	983
  1241  0000                     _FVRCON	set	983
  1242  0000                     _NCO1CONbits	set	1094
  1243  0000                     _NCO1ACCL	set	1088
  1244  0000                     _NCO1ACCH	set	1089
  1245  0000                     _NCO1ACCU	set	1090
  1246  0000                     _NCO1CLK	set	1095
  1247  0000                     _NCO1CON	set	1094
  1248  0000                     _NCO1INCL	set	1091
  1249  0000                     _NCO1INCH	set	1092
  1250  0000                     _NCO1INCU	set	1093
  1251  0000                     _INLVLE	set	1060
  1252  0000                     _INLVLC	set	1044
  1253  0000                     _INLVLB	set	1036
  1254  0000                     _INLVLA	set	1028
  1255  0000                     _SLRCONC	set	1043
  1256  0000                     _SLRCONB	set	1035
  1257  0000                     _SLRCONA	set	1027
  1258  0000                     _ODCONC	set	1042
  1259  0000                     _ODCONB	set	1034
  1260  0000                     _ODCONA	set	1026
  1261  0000                     _ODCONE	set	1058
  1262  0000                     _WPUC	set	1041
  1263  0000                     _WPUA	set	1025
  1264  0000                     _WPUB	set	1033
  1265  0000                     _WPUE	set	1057
  1266  0000                     _ANSELA	set	1024
  1267  0000                     _ANSELB	set	1032
  1268  0000                     _ANSELC	set	1040
  1269  0000                     _LATAbits	set	1214
  1270  0000                     _LATBbits	set	1215
  1271  0000                     _INTCON0bits	set	1238
  1272  0000                     _PIE3bits	set	1185
  1273  0000                     _PIR3bits	set	1201
  1274  0000                     _TRISC	set	1224
  1275  0000                     _TRISB	set	1223
  1276  0000                     _TRISA	set	1222
  1277  0000                     _LATC	set	1216
  1278  0000                     _LATB	set	1215
  1279  0000                     _LATA	set	1214
  1280                           
  1281                           ; #config settings
  1282  0000                     
  1283                           	psect	cinit
  1284  011004                     __pcinit:
  1285                           	opt callstack 0
  1286  011004                     start_initialization:
  1287                           	opt callstack 0
  1288  011004                     __initialization:
  1289                           	opt callstack 0
  1290                           
  1291                           ; Initialize objects allocated to BANK5 (10 bytes)
  1292                           ; load TBLPTR registers with __pidataBANK5
  1293  011004  0E04               	movlw	low __pidataBANK5
  1294  011006  6EF6               	movwf	tblptrl,c
  1295  011008  0E14               	movlw	high __pidataBANK5
  1296  01100A  6EF7               	movwf	tblptrh,c
  1297  01100C  0E01               	movlw	low (__pidataBANK5 shr (0+16))
  1298  01100E  6EF8               	movwf	tblptru,c
  1299  011010  EE01  F1E0         	lfsr	0,__pdataBANK5
  1300  011014  EE10 F00A          	lfsr	1,10
  1301  011018                     copy_data0:
  1302  011018  0009               	tblrd		*+
  1303  01101A  C4F5 F4EE          	movff	tablat,postinc0
  1304  01101E  50E5               	movf	postdec1,w,c
  1305  011020  50E1               	movf	fsr1l,w,c
  1306  011022  E1FA               	bnz	copy_data0
  1307                           
  1308                           ; Initialize objects allocated to COMRAM (1 bytes)
  1309                           ; load TBLPTR registers with __pidataCOMRAM
  1310  011024  0E1C               	movlw	low __pidataCOMRAM
  1311  011026  6EF6               	movwf	tblptrl,c
  1312  011028  0E14               	movlw	high __pidataCOMRAM
  1313  01102A  6EF7               	movwf	tblptrh,c
  1314  01102C  0E01               	movlw	low (__pidataCOMRAM shr (0+16))
  1315  01102E  6EF8               	movwf	tblptru,c
  1316  011030  0009               	tblrd		*+	;fetch initializer
  1317  011032  0061 F3D4  F549    	movff	tablat,__pdataCOMRAM
  1318                           
  1319                           ; Clear objects allocated to BIGRAM (1600 bytes)
  1320  011038  EE01  F1F1         	lfsr	0,__pbssBIGRAM
  1321  01103C  EE11 F240          	lfsr	1,1600
  1322  011040                     clear_0:
  1323  011040  6AEE               	clrf	postinc0,c
  1324  011042  50E5               	movf	postdec1,w,c
  1325  011044  50E1               	movf	fsr1l,w,c
  1326  011046  E1FC               	bnz	clear_0
  1327  011048  50E2               	movf	fsr1h,w,c
  1328  01104A  E1FA               	bnz	clear_0
  1329                           
  1330                           ; Clear objects allocated to BANK5 (96 bytes)
  1331  01104C  EE01  F160         	lfsr	0,__pbssBANK5
  1332  011050  0E60               	movlw	96
  1333  011052                     clear_1:
  1334  011052  6AEE               	clrf	postinc0,c
  1335  011054  06E8               	decf	wreg,f,c
  1336  011056  E1FD               	bnz	clear_1
  1337                           
  1338                           ; Clear objects allocated to COMRAM (21 bytes)
  1339  011058  EE01  F133         	lfsr	0,__pbssCOMRAM
  1340  01105C  0E15               	movlw	21
  1341  01105E                     clear_2:
  1342  01105E  6AEE               	clrf	postinc0,c
  1343  011060  06E8               	decf	wreg,f,c
  1344  011062  E1FD               	bnz	clear_2
  1345                           
  1346                           ;
  1347                           ; Setup IVTBASE
  1348                           ;
  1349  011064  0104               	movlb	4
  1350  011066  0E08               	movlw	(ivt0x8_base shr 0)& (0+255)
  1351  011068  6F5D               	movwf	93,b
  1352  01106A  0E00               	movlw	(ivt0x8_base shr (0+8))& (0+255)
  1353  01106C  6F5E               	movwf	94,b
  1354  01106E  0E00               	movlw	(ivt0x8_base shr (0+16))& (0+255)
  1355  011070  6F5F               	movwf	95,b
  1356  011072                     end_of_initialization:
  1357                           	opt callstack 0
  1358  011072                     __end_of__initialization:
  1359                           	opt callstack 0
  1360  011072  0100               	movlb	0
  1361  011074  EF95  F089         	goto	_main	;jump to C main() function
  1362                           
  1363                           	psect	bssCOMRAM
  1364  000533                     __pbssCOMRAM:
  1365                           	opt callstack 0
  1366  000533                     _temp:
  1367                           	opt callstack 0
  1368  000533                     	ds	4
  1369  000537                     _botCounter:
  1370                           	opt callstack 0
  1371  000537                     	ds	2
  1372  000539                     _delCounter:
  1373                           	opt callstack 0
  1374  000539                     	ds	2
  1375  00053B                     _top:
  1376                           	opt callstack 0
  1377  00053B                     	ds	2
  1378  00053D                     _shiftCount:
  1379                           	opt callstack 0
  1380  00053D                     	ds	1
  1381  00053E                     _stop:
  1382                           	opt callstack 0
  1383  00053E                     	ds	1
  1384  00053F                     _dacOff:
  1385                           	opt callstack 0
  1386  00053F                     	ds	1
  1387  000540                     _ledOff:
  1388                           	opt callstack 0
  1389  000540                     	ds	1
  1390  000541                     _whichDel:
  1391                           	opt callstack 0
  1392  000541                     	ds	1
  1393  000542                     _cm2:
  1394                           	opt callstack 0
  1395  000542                     	ds	1
  1396  000543                     _cm1:
  1397                           	opt callstack 0
  1398  000543                     	ds	1
  1399  000544                     _potArray:
  1400                           	opt callstack 0
  1401  000544                     	ds	1
  1402  000545                     _potFlag:
  1403                           	opt callstack 0
  1404  000545                     	ds	1
  1405  000546                     _shift2:
  1406                           	opt callstack 0
  1407  000546                     	ds	1
  1408  000547                     _shift1:
  1409                           	opt callstack 0
  1410  000547                     	ds	1
  1411                           
  1412                           	psect	dataCOMRAM
  1413  000549                     __pdataCOMRAM:
  1414                           	opt callstack 0
  1415  000549                     _test:
  1416                           	opt callstack 0
  1417  000549                     	ds	1
  1418                           
  1419                           	psect	bssBANK5
  1420  000560                     __pbssBANK5:
  1421                           	opt callstack 0
  1422  000560                     _incr:
  1423                           	opt callstack 0
  1424  000560                     	ds	32
  1425  000580                     _ind:
  1426                           	opt callstack 0
  1427  000580                     	ds	16
  1428  000590                     _LEDs:
  1429                           	opt callstack 0
  1430  000590                     	ds	4
  1431  000594                     _expScale:
  1432                           	opt callstack 0
  1433  000594                     	ds	4
  1434  000598                     _clockVal:
  1435                           	opt callstack 0
  1436  000598                     	ds	4
  1437  00059C                     _freqCounter:
  1438                           	opt callstack 0
  1439  00059C                     	ds	4
  1440  0005A0                     _potVal:
  1441                           	opt callstack 0
  1442  0005A0                     	ds	4
  1443  0005A4                     _index:
  1444                           	opt callstack 0
  1445  0005A4                     	ds	4
  1446  0005A8                     _freq:
  1447                           	opt callstack 0
  1448  0005A8                     	ds	4
  1449  0005AC                     _lastTemp:
  1450                           	opt callstack 0
  1451  0005AC                     	ds	2
  1452  0005AE                     _decay:
  1453                           	opt callstack 0
  1454  0005AE                     	ds	2
  1455  0005B0                     _last:
  1456                           	opt callstack 0
  1457  0005B0                     	ds	2
  1458  0005B2                     _freqIncr:
  1459                           	opt callstack 0
  1460  0005B2                     	ds	2
  1461  0005B4                     _bot:
  1462                           	opt callstack 0
  1463  0005B4                     	ds	2
  1464  0005B6                     _out:
  1465                           	opt callstack 0
  1466  0005B6                     	ds	2
  1467  0005B8                     _seed:
  1468                           	opt callstack 0
  1469  0005B8                     	ds	8
  1470                           
  1471                           	psect	dataBANK5
  1472  0005E0                     __pdataBANK5:
  1473                           	opt callstack 0
  1474  0005E0                     _clockCounter:
  1475                           	opt callstack 0
  1476  0005E0                     	ds	4
  1477  0005E4                     _bitMask:
  1478                           	opt callstack 0
  1479  0005E4                     	ds	2
  1480  0005E6                     _counterSave:
  1481                           	opt callstack 0
  1482  0005E6                     	ds	4
  1483                           
  1484                           	psect	bssBIGRAM
  1485  0005F1                     __pbssBIGRAM:
  1486                           	opt callstack 0
  1487  0005F1                     _botDel:
  1488                           	opt callstack 0
  1489  0005F1                     	ds	800
  1490  000911                     _topDel:
  1491                           	opt callstack 0
  1492  000911                     	ds	800
  1493                           
  1494                           	psect	cstackBANK5
  1495  0005C0                     __pcstackBANK5:
  1496                           	opt callstack 0
  1497  0005C0                     ??_rand:
  1498                           
  1499                           ; 1 bytes @ 0x0
  1500  0005C0                     	ds	8
  1501  0005C8                     ?___almod:
  1502                           	opt callstack 0
  1503  0005C8                     ___almod@dividend:
  1504                           	opt callstack 0
  1505                           
  1506                           ; 4 bytes @ 0x8
  1507  0005C8                     	ds	4
  1508  0005CC                     ___almod@divisor:
  1509                           	opt callstack 0
  1510                           
  1511                           ; 4 bytes @ 0xC
  1512  0005CC                     	ds	4
  1513  0005D0                     ??_readPot:
  1514                           
  1515                           ; 1 bytes @ 0x10
  1516  0005D0                     	ds	10
  1517  0005DA                     readPot@i:
  1518                           	opt callstack 0
  1519                           
  1520                           ; 2 bytes @ 0x1A
  1521  0005DA                     	ds	2
  1522  0005DC                     readPot@temp1:
  1523                           	opt callstack 0
  1524                           
  1525                           ; 4 bytes @ 0x1C
  1526  0005DC                     	ds	4
  1527                           
  1528                           	psect	cstackCOMRAM
  1529  000501                     __pcstackCOMRAM:
  1530                           	opt callstack 0
  1531  000501                     ??_doAudio:
  1532  000501                     TMR1_WriteTimer@timerVal:
  1533                           	opt callstack 0
  1534                           
  1535                           ; 2 bytes @ 0x0
  1536  000501                     	ds	2
  1537  000503                     
  1538                           ; 1 bytes @ 0x2
  1539  000503                     	ds	16
  1540  000513                     ??_INTERRUPT_InterruptManager:
  1541                           
  1542                           ; 1 bytes @ 0x12
  1543  000513                     	ds	4
  1544  000517                     ?_ADCC_GetConversionResult:
  1545                           	opt callstack 0
  1546  000517                     ?___awmod:
  1547                           	opt callstack 0
  1548  000517                     ?___lmul:
  1549                           	opt callstack 0
  1550  000517                     ?___lldiv:
  1551                           	opt callstack 0
  1552  000517                     ?___omul:
  1553                           	opt callstack 0
  1554  000517                     ADCC_StartConversion@channel:
  1555                           	opt callstack 0
  1556  000517                     ___awmod@dividend:
  1557                           	opt callstack 0
  1558  000517                     TMR1_SetInterruptHandler@InterruptHandler:
  1559                           	opt callstack 0
  1560  000517                     ___lmul@multiplier:
  1561                           	opt callstack 0
  1562  000517                     ___lldiv@dividend:
  1563                           	opt callstack 0
  1564  000517                     ___omul@multiplier:
  1565                           	opt callstack 0
  1566                           
  1567                           ; 8 bytes @ 0x16
  1568  000517                     	ds	2
  1569  000519                     ??_ADCC_GetConversionResult:
  1570  000519                     ___awmod@divisor:
  1571                           	opt callstack 0
  1572                           
  1573                           ; 2 bytes @ 0x18
  1574  000519                     	ds	1
  1575  00051A                     ??_TMR1_Initialize:
  1576  00051A                     
  1577                           ; 1 bytes @ 0x19
  1578  00051A                     	ds	1
  1579  00051B                     ___awmod@counter:
  1580                           	opt callstack 0
  1581  00051B                     ___lmul@multiplicand:
  1582                           	opt callstack 0
  1583  00051B                     ___lldiv@divisor:
  1584                           	opt callstack 0
  1585                           
  1586                           ; 4 bytes @ 0x1A
  1587  00051B                     	ds	1
  1588  00051C                     ___awmod@sign:
  1589                           	opt callstack 0
  1590                           
  1591                           ; 1 bytes @ 0x1B
  1592  00051C                     	ds	3
  1593  00051F                     ___lmul@product:
  1594                           	opt callstack 0
  1595  00051F                     ___lldiv@quotient:
  1596                           	opt callstack 0
  1597  00051F                     ___omul@multiplicand:
  1598                           	opt callstack 0
  1599                           
  1600                           ; 8 bytes @ 0x1E
  1601  00051F                     	ds	4
  1602  000523                     ___lldiv@counter:
  1603                           	opt callstack 0
  1604                           
  1605                           ; 1 bytes @ 0x22
  1606  000523                     	ds	4
  1607  000527                     ___omul@product:
  1608                           	opt callstack 0
  1609                           
  1610                           ; 8 bytes @ 0x26
  1611  000527                     	ds	8
  1612  00052F                     ?_rand:
  1613                           	opt callstack 0
  1614                           
  1615                           ; 2 bytes @ 0x2E
  1616  00052F                     	ds	2
  1617  000531                     ___almod@counter:
  1618                           	opt callstack 0
  1619                           
  1620                           ; 1 bytes @ 0x30
  1621  000531                     	ds	1
  1622  000532                     ___almod@sign:
  1623                           	opt callstack 0
  1624                           
  1625                           ; 1 bytes @ 0x31
  1626  000532                     	ds	1
  1627  000533                     
  1628                           ; 1 bytes @ 0x32
  1629 ;;
  1630 ;;Main: autosize = 0, tempsize = 0, incstack = 0, save=0
  1631 ;;
  1632 ;; *************** function _main *****************
  1633 ;; Defined at:
  1634 ;;		line 376 in file "main.c"
  1635 ;; Parameters:    Size  Location     Type
  1636 ;;		None
  1637 ;; Auto vars:     Size  Location     Type
  1638 ;;		None
  1639 ;; Return value:  Size  Location     Type
  1640 ;;                  1    wreg      void 
  1641 ;; Registers used:
  1642 ;;		wreg, fsr2l, fsr2h, status,2, status,0, cstack
  1643 ;; Tracked objects:
  1644 ;;		On entry : 0/0
  1645 ;;		On exit  : 0/0
  1646 ;;		Unchanged: 0/0
  1647 ;; Data sizes:     COMRAM   BANK5   BANK6   BANK7   BANK8   BANK9  BANK10  BANK11  BANK12  BANK13  BANK14  BANK15  BANK1
      +6  BANK17  BANK18  BANK19  BANK20  BANK21  BANK22  BANK23  BANK24  BANK25  BANK26  BANK27  BANK28  BANK29  BANK30  BANK3
      +1  BANK32  BANK33  BANK34  BANK35  BANK36
  1648 ;;      Params:         0       0       0       0       0       0       0       0       0       0       0       0       
      +0       0       0       0       0       0       0       0       0       0       0       0       0       0       0       
      +0       0       0       0       0       0
  1649 ;;      Locals:         0       0       0       0       0       0       0       0       0       0       0       0       
      +0       0       0       0       0       0       0       0       0       0       0       0       0       0       0       
      +0       0       0       0       0       0
  1650 ;;      Temps:          0       0       0       0       0       0       0       0       0       0       0       0       
      +0       0       0       0       0       0       0       0       0       0       0       0       0       0       0       
      +0       0       0       0       0       0
  1651 ;;      Totals:         0       0       0       0       0       0       0       0       0       0       0       0       
      +0       0       0       0       0       0       0       0       0       0       0       0       0       0       0       
      +0       0       0       0       0       0
  1652 ;;Total ram usage:        0 bytes
  1653 ;; Hardware stack levels required when called:    7
  1654 ;; This function calls:
  1655 ;;		_SYSTEM_Initialize
  1656 ;;		_TMR1_SetInterruptHandler
  1657 ;;		_readPot
  1658 ;; This function is called by:
  1659 ;;		Startup code after reset
  1660 ;; This function uses a non-reentrant model
  1661 ;;
  1662                           
  1663                           	psect	text0
  1664  01132A                     __ptext0:
  1665                           	opt callstack 0
  1666  01132A                     _main:
  1667                           	opt callstack 121
  1668  01132A                     
  1669                           ;main.c: 379:     SYSTEM_Initialize();
  1670  01132A  EC42  F089         	call	_SYSTEM_Initialize	;wreg free
  1671                           
  1672                           ;main.c: 380:     TMR1_SetInterruptHandler(doAudio);
  1673  01132E  0E00               	movlw	low _doAudio
  1674  011330  6E17               	movwf	TMR1_SetInterruptHandler@InterruptHandler^(0+1280),c
  1675  011332  0E00               	movlw	high _doAudio
  1676  011334  6E18               	movwf	(TMR1_SetInterruptHandler@InterruptHandler+1)^(0+1280),c
  1677  011336  0E01               	movlw	low (_doAudio shr (0+16))
  1678  011338  6E19               	movwf	(TMR1_SetInterruptHandler@InterruptHandler+2)^(0+1280),c
  1679  01133A  ECD6  F089         	call	_TMR1_SetInterruptHandler	;wreg free
  1680  01133E                     
  1681                           ;main.c: 385:     (INTCON0bits.GIE = 1);
  1682  01133E  8ED6               	bsf	214,7,c	;volatile
  1683  011340                     l2421:
  1684                           
  1685                           ;main.c: 388:     {;main.c: 389:         readPot();
  1686  011340  EC23  F083         	call	_readPot	;wreg free
  1687  011344  EFA0  F089         	goto	l2421
  1688  011348  EF0D  F000         	goto	start
  1689  01134C                     __end_of_main:
  1690                           	opt callstack 0
  1691                           
  1692 ;; *************** function _readPot *****************
  1693 ;; Defined at:
  1694 ;;		line 282 in file "main.c"
  1695 ;; Parameters:    Size  Location     Type
  1696 ;;		None
  1697 ;; Auto vars:     Size  Location     Type
  1698 ;;  i               2   26[BANK5 ] int 
  1699 ;;  temp1           4   28[BANK5 ] unsigned long 
  1700 ;; Return value:  Size  Location     Type
  1701 ;;                  1    wreg      void 
  1702 ;; Registers used:
  1703 ;;		wreg, fsr2l, fsr2h, status,2, status,0, cstack
  1704 ;; Tracked objects:
  1705 ;;		On entry : 0/0
  1706 ;;		On exit  : 0/0
  1707 ;;		Unchanged: 0/0
  1708 ;; Data sizes:     COMRAM   BANK5   BANK6   BANK7   BANK8   BANK9  BANK10  BANK11  BANK12  BANK13  BANK14  BANK15  BANK1
      +6  BANK17  BANK18  BANK19  BANK20  BANK21  BANK22  BANK23  BANK24  BANK25  BANK26  BANK27  BANK28  BANK29  BANK30  BANK3
      +1  BANK32  BANK33  BANK34  BANK35  BANK36
  1709 ;;      Params:         0       0       0       0       0       0       0       0       0       0       0       0       
      +0       0       0       0       0       0       0       0       0       0       0       0       0       0       0       
      +0       0       0       0       0       0
  1710 ;;      Locals:         0       6       0       0       0       0       0       0       0       0       0       0       
      +0       0       0       0       0       0       0       0       0       0       0       0       0       0       0       
      +0       0       0       0       0       0
  1711 ;;      Temps:          0      10       0       0       0       0       0       0       0       0       0       0       
      +0       0       0       0       0       0       0       0       0       0       0       0       0       0       0       
      +0       0       0       0       0       0
  1712 ;;      Totals:         0      16       0       0       0       0       0       0       0       0       0       0       
      +0       0       0       0       0       0       0       0       0       0       0       0       0       0       0       
      +0       0       0       0       0       0
  1713 ;;Total ram usage:       16 bytes
  1714 ;; Hardware stack levels used:    1
  1715 ;; Hardware stack levels required when called:    6
  1716 ;; This function calls:
  1717 ;;		_ADCC_GetConversionResult
  1718 ;;		_ADCC_IsConversionDone
  1719 ;;		_ADCC_StartConversion
  1720 ;;		___almod
  1721 ;;		___awmod
  1722 ;;		___lldiv
  1723 ;;		___lmul
  1724 ;;		_rand
  1725 ;; This function is called by:
  1726 ;;		_main
  1727 ;; This function uses a non-reentrant model
  1728 ;;
  1729                           
  1730                           	psect	text1
  1731  010646                     __ptext1:
  1732                           	opt callstack 0
  1733  010646                     _readPot:
  1734                           	opt callstack 121
  1735  010646                     
  1736                           ;main.c: 285:     mask1 = (1 << shift1);
  1737  010646  0061  F51C  F5D0   	movff	_shift1,??_readPot
  1738  01064C  0E01               	movlw	1
  1739  01064E  0105               	movlb	5	; () banked
  1740  010650  6FD1               	movwf	(??_readPot+1)& (0+255),b
  1741  010652  0E00               	movlw	0
  1742  010654  6FD2               	movwf	(??_readPot+2)& (0+255),b
  1743  010656  2BD0               	incf	??_readPot& (0+255),f,b
  1744  010658  EF31  F083         	goto	u1714
  1745  01065C                     u1715:
  1746  01065C  90D8               	bcf	status,0,c
  1747  01065E  37D1               	rlcf	(??_readPot+1)& (0+255),f,b
  1748  010660  37D2               	rlcf	(??_readPot+2)& (0+255),f,b
  1749  010662                     u1714:
  1750  010662  2FD0               	decfsz	??_readPot& (0+255),f,b
  1751  010664  EF2E  F083         	goto	u1715
  1752  010668  0061  F744  F5ED   	movff	??_readPot+1,_mask1
  1753  01066E  0061  F748  F5EE   	movff	??_readPot+2,_mask1+1
  1754                           
  1755                           ;main.c: 286:     mask2 = (1 << shift2);
  1756  010674  0061  F518  F5D0   	movff	_shift2,??_readPot
  1757  01067A  0E01               	movlw	1
  1758  01067C  0105               	movlb	5	; () banked
  1759  01067E  6FD1               	movwf	(??_readPot+1)& (0+255),b
  1760  010680  2BD0               	incf	??_readPot& (0+255),f,b
  1761  010682  EF45  F083         	goto	u1724
  1762  010686                     u1725:
  1763  010686  90D8               	bcf	status,0,c
  1764  010688  37D1               	rlcf	(??_readPot+1)& (0+255),f,b
  1765  01068A                     u1724:
  1766  01068A  2FD0               	decfsz	??_readPot& (0+255),f,b
  1767  01068C  EF43  F083         	goto	u1725
  1768  010690  0105               	movlb	5	; () banked
  1769  010692  51D1               	movf	(??_readPot+1)& (0+255),w,b
  1770  010694  6E48               	movwf	_mask2^(0+1280),c
  1771  010696                     
  1772                           ; BSR set to: 5
  1773                           ;main.c: 288:     if(ledOff){
  1774  010696  5040               	movf	_ledOff^(0+1280),w,c
  1775  010698  B4D8               	btfsc	status,2,c
  1776  01069A  EF51  F083         	goto	u1731
  1777  01069E  EF53  F083         	goto	u1730
  1778  0106A2                     u1731:
  1779  0106A2  EF59  F083         	goto	l558
  1780  0106A6                     u1730:
  1781  0106A6                     
  1782                           ; BSR set to: 5
  1783                           ;main.c: 289:         mask1 = mask2 = 0;
  1784  0106A6  0E00               	movlw	0
  1785  0106A8  6E48               	movwf	_mask2^(0+1280),c
  1786  0106AA  0061  F520  F5ED   	movff	_mask2,_mask1
  1787  0106B0  6BEE               	clrf	(_mask1+1)& (0+255),b
  1788  0106B2                     l558:
  1789                           
  1790                           ; BSR set to: 5
  1791                           ;main.c: 292:     LATB = CM1CON0bits.C1OUT << 5;
  1792  0106B2  0100               	movlb	0	; () banked
  1793  0106B4  BD70               	btfsc	112,6,b	;volatile
  1794  0106B6  EF5F  F083         	goto	u1741
  1795  0106BA  EF64  F083         	goto	u1740
  1796  0106BE                     u1741:
  1797  0106BE  0E20               	movlw	32
  1798  0106C0  0105               	movlb	5	; () banked
  1799  0106C2  6FD0               	movwf	??_readPot& (0+255),b
  1800  0106C4  EF66  F083         	goto	u1755
  1801  0106C8                     u1740:
  1802  0106C8  0105               	movlb	5	; () banked
  1803  0106CA  6BD0               	clrf	??_readPot& (0+255),b
  1804  0106CC                     u1755:
  1805  0106CC  51D0               	movf	??_readPot& (0+255),w,b
  1806  0106CE  6EBF               	movwf	191,c	;volatile
  1807  0106D0                     
  1808                           ; BSR set to: 5
  1809                           ;main.c: 293:     LATB |= (mask1 >> 4) & 0B00011111;
  1810  0106D0  0061  F7B4  F5D0   	movff	_mask1,??_readPot
  1811  0106D6  0061  F7B8  F5D1   	movff	_mask1+1,??_readPot+1
  1812  0106DC  0E04               	movlw	4
  1813  0106DE  6FD2               	movwf	(??_readPot+2)& (0+255),b
  1814  0106E0                     u1765:
  1815  0106E0  90D8               	bcf	status,0,c
  1816  0106E2  33D1               	rrcf	(??_readPot+1)& (0+255),f,b
  1817  0106E4  33D0               	rrcf	??_readPot& (0+255),f,b
  1818  0106E6  2FD2               	decfsz	(??_readPot+2)& (0+255),f,b
  1819  0106E8  EF70  F083         	goto	u1765
  1820  0106EC  51D0               	movf	??_readPot& (0+255),w,b
  1821  0106EE  0B1F               	andlw	31
  1822  0106F0  12BF               	iorwf	191,f,c	;volatile
  1823  0106F2                     
  1824                           ; BSR set to: 5
  1825                           ;main.c: 294:     LATC = ((mask1 & 0B00001111) << 4) | ((mask2 & 0B01111000) >> 3);
  1826  0106F2  0061  F520  F5D0   	movff	_mask2,??_readPot
  1827  0106F8  90D8               	bcf	status,0,c
  1828  0106FA  33D0               	rrcf	??_readPot& (0+255),f,b
  1829  0106FC  90D8               	bcf	status,0,c
  1830  0106FE  33D0               	rrcf	??_readPot& (0+255),f,b
  1831  010700  90D8               	bcf	status,0,c
  1832  010702  33D0               	rrcf	??_readPot& (0+255),f,b
  1833  010704  0E0F               	movlw	15
  1834  010706  17D0               	andwf	??_readPot& (0+255),f,b
  1835  010708  0061  F7B4  F5D1   	movff	_mask1,??_readPot+1
  1836  01070E  0E0F               	movlw	15
  1837  010710  17D1               	andwf	(??_readPot+1)& (0+255),f,b
  1838  010712  39D1               	swapf	(??_readPot+1)& (0+255),w,b
  1839  010714  0BF0               	andlw	240
  1840  010716  11D0               	iorwf	??_readPot& (0+255),w,b
  1841  010718  6EC0               	movwf	192,c	;volatile
  1842  01071A                     
  1843                           ; BSR set to: 5
  1844                           ;main.c: 295:     LATAbits.LATA6 = (mask2 == 0B00000100);
  1845  01071A  0E04               	movlw	4
  1846  01071C  1848               	xorwf	_mask2^(0+1280),w,c
  1847  01071E  B4D8               	btfsc	status,2,c
  1848  010720  EF94  F083         	goto	u1771
  1849  010724  EF98  F083         	goto	u1770
  1850  010728                     u1771:
  1851  010728  6BD0               	clrf	??_readPot& (0+255),b
  1852  01072A  2BD0               	incf	??_readPot& (0+255),f,b
  1853  01072C  EF9A  F083         	goto	u1788
  1854  010730                     u1770:
  1855  010730  0105               	movlb	5	; () banked
  1856  010732  6BD0               	clrf	??_readPot& (0+255),b
  1857  010734                     u1788:
  1858  010734  3BD0               	swapf	??_readPot& (0+255),f,b
  1859  010736  47D0               	rlncf	??_readPot& (0+255),f,b
  1860  010738  47D0               	rlncf	??_readPot& (0+255),f,b
  1861  01073A  50BE               	movf	190,w,c	;volatile
  1862  01073C  19D0               	xorwf	??_readPot& (0+255),w,b
  1863  01073E  0BBF               	andlw	-65
  1864  010740  19D0               	xorwf	??_readPot& (0+255),w,b
  1865  010742  6EBE               	movwf	190,c	;volatile
  1866  010744                     
  1867                           ; BSR set to: 5
  1868                           ;main.c: 296:     LATAbits.LATA7 = (mask2 == 0B00000010);
  1869  010744  0E02               	movlw	2
  1870  010746  1848               	xorwf	_mask2^(0+1280),w,c
  1871  010748  B4D8               	btfsc	status,2,c
  1872  01074A  EFA9  F083         	goto	u1791
  1873  01074E  EFAD  F083         	goto	u1790
  1874  010752                     u1791:
  1875  010752  6BD0               	clrf	??_readPot& (0+255),b
  1876  010754  2BD0               	incf	??_readPot& (0+255),f,b
  1877  010756  EFAF  F083         	goto	u1808
  1878  01075A                     u1790:
  1879  01075A  0105               	movlb	5	; () banked
  1880  01075C  6BD0               	clrf	??_readPot& (0+255),b
  1881  01075E                     u1808:
  1882  01075E  33D0               	rrcf	??_readPot& (0+255),f,b
  1883  010760  33D0               	rrcf	??_readPot& (0+255),f,b
  1884  010762  50BE               	movf	190,w,c	;volatile
  1885  010764  19D0               	xorwf	??_readPot& (0+255),w,b
  1886  010766  0B7F               	andlw	-129
  1887  010768  19D0               	xorwf	??_readPot& (0+255),w,b
  1888  01076A  6EBE               	movwf	190,c	;volatile
  1889  01076C                     
  1890                           ; BSR set to: 5
  1891                           ;main.c: 297:     LATAbits.LATA5 = (mask2 == 0B00000001);
  1892  01076C  0448               	decf	_mask2^(0+1280),w,c
  1893  01076E  B4D8               	btfsc	status,2,c
  1894  010770  EFBC  F083         	goto	u1811
  1895  010774  EFC0  F083         	goto	u1810
  1896  010778                     u1811:
  1897  010778  6BD0               	clrf	??_readPot& (0+255),b
  1898  01077A  2BD0               	incf	??_readPot& (0+255),f,b
  1899  01077C  EFC2  F083         	goto	u1828
  1900  010780                     u1810:
  1901  010780  0105               	movlb	5	; () banked
  1902  010782  6BD0               	clrf	??_readPot& (0+255),b
  1903  010784                     u1828:
  1904  010784  3BD0               	swapf	??_readPot& (0+255),f,b
  1905  010786  47D0               	rlncf	??_readPot& (0+255),f,b
  1906  010788  50BE               	movf	190,w,c	;volatile
  1907  01078A  19D0               	xorwf	??_readPot& (0+255),w,b
  1908  01078C  0BDF               	andlw	-33
  1909  01078E  19D0               	xorwf	??_readPot& (0+255),w,b
  1910  010790  6EBE               	movwf	190,c	;volatile
  1911  010792                     
  1912                           ; BSR set to: 5
  1913                           ;main.c: 299:     if(ADCC_IsConversionDone()){
  1914  010792  ECC0  F089         	call	_ADCC_IsConversionDone	;wreg free
  1915  010796  0900               	iorlw	0
  1916  010798  B4D8               	btfsc	status,2,c
  1917  01079A  EFD1  F083         	goto	u1831
  1918  01079E  EFD3  F083         	goto	u1830
  1919  0107A2                     u1831:
  1920  0107A2  EF8C  F084         	goto	l2373
  1921  0107A6                     u1830:
  1922  0107A6                     
  1923                           ;main.c: 300:         uint32_t temp1 = ADCC_GetConversionResult();
  1924  0107A6  ECCB  F089         	call	_ADCC_GetConversionResult	;wreg free
  1925  0107AA  0061  F45C  F5DC   	movff	?_ADCC_GetConversionResult,readPot@temp1
  1926  0107B0  0061  F460  F5DD   	movff	?_ADCC_GetConversionResult+1,readPot@temp1+1
  1927  0107B6  0105               	movlb	5	; () banked
  1928  0107B8  6BDE               	clrf	(readPot@temp1+2)& (0+255),b
  1929  0107BA  6BDF               	clrf	(readPot@temp1+3)& (0+255),b
  1930                           
  1931                           ;main.c: 301:         temp1 = (temp1 * temp1) >> 12;
  1932  0107BC  0061  F770  F517   	movff	readPot@temp1,___lmul@multiplier
  1933  0107C2  0061  F774  F518   	movff	readPot@temp1+1,___lmul@multiplier+1
  1934  0107C8  0061  F778  F519   	movff	readPot@temp1+2,___lmul@multiplier+2
  1935  0107CE  0061  F77C  F51A   	movff	readPot@temp1+3,___lmul@multiplier+3
  1936  0107D4  0061  F770  F51B   	movff	readPot@temp1,___lmul@multiplicand
  1937  0107DA  0061  F774  F51C   	movff	readPot@temp1+1,___lmul@multiplicand+1
  1938  0107E0  0061  F778  F51D   	movff	readPot@temp1+2,___lmul@multiplicand+2
  1939  0107E6  0061  F77C  F51E   	movff	readPot@temp1+3,___lmul@multiplicand+3
  1940  0107EC  EC3C  F088         	call	___lmul	;wreg free
  1941  0107F0  0E0D               	movlw	13
  1942  0107F2  EF00  F084         	goto	u1840
  1943  0107F6                     u1845:
  1944  0107F6  90D8               	bcf	status,0,c
  1945  0107F8  321A               	rrcf	(?___lmul+3)^(0+1280),f,c
  1946  0107FA  3219               	rrcf	(?___lmul+2)^(0+1280),f,c
  1947  0107FC  3218               	rrcf	(?___lmul+1)^(0+1280),f,c
  1948  0107FE  3217               	rrcf	?___lmul^(0+1280),f,c
  1949  010800                     u1840:
  1950  010800  2EE8               	decfsz	wreg,f,c
  1951  010802  EFFB  F083         	goto	u1845
  1952  010806  0061  F45C  F5DC   	movff	?___lmul,readPot@temp1
  1953  01080C  0061  F460  F5DD   	movff	?___lmul+1,readPot@temp1+1
  1954  010812  0061  F464  F5DE   	movff	?___lmul+2,readPot@temp1+2
  1955  010818  0061  F468  F5DF   	movff	?___lmul+3,readPot@temp1+3
  1956                           
  1957                           ;main.c: 302:         temp1 = (temp1 * temp1) >> 12;
  1958  01081E  0061  F770  F517   	movff	readPot@temp1,___lmul@multiplier
  1959  010824  0061  F774  F518   	movff	readPot@temp1+1,___lmul@multiplier+1
  1960  01082A  0061  F778  F519   	movff	readPot@temp1+2,___lmul@multiplier+2
  1961  010830  0061  F77C  F51A   	movff	readPot@temp1+3,___lmul@multiplier+3
  1962  010836  0061  F770  F51B   	movff	readPot@temp1,___lmul@multiplicand
  1963  01083C  0061  F774  F51C   	movff	readPot@temp1+1,___lmul@multiplicand+1
  1964  010842  0061  F778  F51D   	movff	readPot@temp1+2,___lmul@multiplicand+2
  1965  010848  0061  F77C  F51E   	movff	readPot@temp1+3,___lmul@multiplicand+3
  1966  01084E  EC3C  F088         	call	___lmul	;wreg free
  1967  010852  0E0D               	movlw	13
  1968  010854  EF31  F084         	goto	u1850
  1969  010858                     u1855:
  1970  010858  90D8               	bcf	status,0,c
  1971  01085A  321A               	rrcf	(?___lmul+3)^(0+1280),f,c
  1972  01085C  3219               	rrcf	(?___lmul+2)^(0+1280),f,c
  1973  01085E  3218               	rrcf	(?___lmul+1)^(0+1280),f,c
  1974  010860  3217               	rrcf	?___lmul^(0+1280),f,c
  1975  010862                     u1850:
  1976  010862  2EE8               	decfsz	wreg,f,c
  1977  010864  EF2C  F084         	goto	u1855
  1978  010868  0061  F45C  F5DC   	movff	?___lmul,readPot@temp1
  1979  01086E  0061  F460  F5DD   	movff	?___lmul+1,readPot@temp1+1
  1980  010874  0061  F464  F5DE   	movff	?___lmul+2,readPot@temp1+2
  1981  01087A  0061  F468  F5DF   	movff	?___lmul+3,readPot@temp1+3
  1982                           
  1983                           ;main.c: 303:         temp1 = (temp1 * temp1) >> 12;
  1984  010880  0061  F770  F517   	movff	readPot@temp1,___lmul@multiplier
  1985  010886  0061  F774  F518   	movff	readPot@temp1+1,___lmul@multiplier+1
  1986  01088C  0061  F778  F519   	movff	readPot@temp1+2,___lmul@multiplier+2
  1987  010892  0061  F77C  F51A   	movff	readPot@temp1+3,___lmul@multiplier+3
  1988  010898  0061  F770  F51B   	movff	readPot@temp1,___lmul@multiplicand
  1989  01089E  0061  F774  F51C   	movff	readPot@temp1+1,___lmul@multiplicand+1
  1990  0108A4  0061  F778  F51D   	movff	readPot@temp1+2,___lmul@multiplicand+2
  1991  0108AA  0061  F77C  F51E   	movff	readPot@temp1+3,___lmul@multiplicand+3
  1992  0108B0  EC3C  F088         	call	___lmul	;wreg free
  1993  0108B4  0E0D               	movlw	13
  1994  0108B6  EF62  F084         	goto	u1860
  1995  0108BA                     u1865:
  1996  0108BA  90D8               	bcf	status,0,c
  1997  0108BC  321A               	rrcf	(?___lmul+3)^(0+1280),f,c
  1998  0108BE  3219               	rrcf	(?___lmul+2)^(0+1280),f,c
  1999  0108C0  3218               	rrcf	(?___lmul+1)^(0+1280),f,c
  2000  0108C2  3217               	rrcf	?___lmul^(0+1280),f,c
  2001  0108C4                     u1860:
  2002  0108C4  2EE8               	decfsz	wreg,f,c
  2003  0108C6  EF5D  F084         	goto	u1865
  2004  0108CA  0061  F45C  F5DC   	movff	?___lmul,readPot@temp1
  2005  0108D0  0061  F460  F5DD   	movff	?___lmul+1,readPot@temp1+1
  2006  0108D6  0061  F464  F5DE   	movff	?___lmul+2,readPot@temp1+2
  2007  0108DC  0061  F468  F5DF   	movff	?___lmul+3,readPot@temp1+3
  2008  0108E2                     
  2009                           ;main.c: 304:         potVal = temp1 + 10;
  2010  0108E2  0E0A               	movlw	10
  2011  0108E4  0105               	movlb	5	; () banked
  2012  0108E6  25DC               	addwf	readPot@temp1& (0+255),w,b
  2013  0108E8  6FA0               	movwf	_potVal& (0+255),b
  2014  0108EA  0E00               	movlw	0
  2015  0108EC  21DD               	addwfc	(readPot@temp1+1)& (0+255),w,b
  2016  0108EE  6FA1               	movwf	(_potVal+1)& (0+255),b
  2017  0108F0  0E00               	movlw	0
  2018  0108F2  21DE               	addwfc	(readPot@temp1+2)& (0+255),w,b
  2019  0108F4  6FA2               	movwf	(_potVal+2)& (0+255),b
  2020  0108F6  0E00               	movlw	0
  2021  0108F8  21DF               	addwfc	(readPot@temp1+3)& (0+255),w,b
  2022  0108FA  6FA3               	movwf	(_potVal+3)& (0+255),b
  2023  0108FC                     
  2024                           ; BSR set to: 5
  2025                           ;main.c: 305:         NCO1INCU = 0;
  2026  0108FC  0E00               	movlw	0
  2027  0108FE  0104               	movlb	4	; () banked
  2028  010900  6F45               	movwf	69,b	;volatile
  2029  010902                     
  2030                           ; BSR set to: 4
  2031                           ;main.c: 306:         NCO1INCH = (potVal >> 8) & 0B00001111;
  2032  010902  0105               	movlb	5	; () banked
  2033  010904  51A1               	movf	(_potVal+1)& (0+255),w,b
  2034  010906  0B0F               	andlw	15
  2035  010908  0104               	movlb	4	; () banked
  2036  01090A  6F44               	movwf	68,b	;volatile
  2037  01090C                     
  2038                           ; BSR set to: 4
  2039                           ;main.c: 307:         NCO1INCL = (potVal) & 0B11111111;
  2040  01090C  0061  F680  F443   	movff	_potVal,1091	;volatile
  2041  010912                     
  2042                           ; BSR set to: 4
  2043                           ;main.c: 310:         ADCC_StartConversion(channel_ANA0);
  2044  010912  0E00               	movlw	0
  2045  010914  ECF4  F089         	call	_ADCC_StartConversion
  2046  010918                     l2373:
  2047                           
  2048                           ;main.c: 312:     if(!potFlag){
  2049  010918  5045               	movf	_potFlag^(0+1280),w,c
  2050  01091A  A4D8               	btfss	status,2,c
  2051  01091C  EF92  F084         	goto	u1871
  2052  010920  EF94  F084         	goto	u1870
  2053  010924                     u1871:
  2054  010924  EFF6  F085         	goto	l567
  2055  010928                     u1870:
  2056  010928                     
  2057                           ;main.c: 319:         if(CM2CON0bits.C2OUT && !cm2){
  2058  010928  0100               	movlb	0	; () banked
  2059  01092A  AD74               	btfss	116,6,b	;volatile
  2060  01092C  EF9A  F084         	goto	u1881
  2061  010930  EF9C  F084         	goto	u1880
  2062  010934                     u1881:
  2063  010934  EFA7  F084         	goto	l2381
  2064  010938                     u1880:
  2065  010938                     
  2066                           ; BSR set to: 0
  2067  010938  5042               	movf	_cm2^(0+1280),w,c
  2068  01093A  A4D8               	btfss	status,2,c
  2069  01093C  EFA2  F084         	goto	u1891
  2070  010940  EFA4  F084         	goto	u1890
  2071  010944                     u1891:
  2072  010944  EFA7  F084         	goto	l2381
  2073  010948                     u1890:
  2074  010948                     
  2075                           ; BSR set to: 0
  2076                           ;main.c: 320:             decay++;
  2077  010948  0105               	movlb	5	; () banked
  2078  01094A  4BAE               	infsnz	_decay& (0+255),f,b
  2079  01094C  2BAF               	incf	(_decay+1)& (0+255),f,b
  2080  01094E                     l2381:
  2081                           
  2082                           ;main.c: 322:         cm2 = CM2CON0bits.C2OUT;
  2083  01094E  0100               	movlb	0	; () banked
  2084  010950  0E00               	movlw	0
  2085  010952  BD74               	btfsc	116,6,b	;volatile
  2086  010954  0E01               	movlw	1
  2087  010956  6E42               	movwf	_cm2^(0+1280),c
  2088  010958                     
  2089                           ; BSR set to: 0
  2090                           ;main.c: 324:         if(decay > (rand() % 50000)){
  2091  010958  0105               	movlb	5	; () banked
  2092  01095A  51AE               	movf	_decay& (0+255),w,b
  2093  01095C  6FD0               	movwf	??_readPot& (0+255),b
  2094  01095E  51AF               	movf	(_decay+1)& (0+255),w,b
  2095  010960  6FD1               	movwf	(??_readPot+1)& (0+255),b
  2096  010962  6BD2               	clrf	(??_readPot+2)& (0+255),b
  2097  010964  6BD3               	clrf	(??_readPot+3)& (0+255),b
  2098  010966  ECF7  F085         	call	_rand	;wreg free
  2099  01096A  0061  F4BC  F5C8   	movff	?_rand,___almod@dividend
  2100  010970  0061  F4C0  F5C9   	movff	?_rand+1,___almod@dividend+1
  2101  010976  0105               	movlb	5	; () banked
  2102  010978  0E00               	movlw	0
  2103  01097A  BFC9               	btfsc	(___almod@dividend+1)& (0+255),7,b
  2104  01097C  0EFF               	movlw	-1
  2105  01097E  6FCA               	movwf	(___almod@dividend+2)& (0+255),b
  2106  010980  6FCB               	movwf	(___almod@dividend+3)& (0+255),b
  2107  010982  0E50               	movlw	80
  2108  010984  6FCC               	movwf	___almod@divisor& (0+255),b
  2109  010986  0EC3               	movlw	195
  2110  010988  6FCD               	movwf	(___almod@divisor+1)& (0+255),b
  2111  01098A  0E00               	movlw	0
  2112  01098C  6FCE               	movwf	(___almod@divisor+2)& (0+255),b
  2113  01098E  0E00               	movlw	0
  2114  010990  6FCF               	movwf	(___almod@divisor+3)& (0+255),b
  2115  010992  EC80  F086         	call	___almod	;wreg free
  2116  010996  0105               	movlb	5	; () banked
  2117  010998  51D0               	movf	??_readPot& (0+255),w,b
  2118  01099A  5DC8               	subwf	?___almod& (0+255),w,b
  2119  01099C  51D1               	movf	(??_readPot+1)& (0+255),w,b
  2120  01099E  59C9               	subwfb	(?___almod+1)& (0+255),w,b
  2121  0109A0  51D2               	movf	(??_readPot+2)& (0+255),w,b
  2122  0109A2  59CA               	subwfb	(?___almod+2)& (0+255),w,b
  2123  0109A4  51CB               	movf	(?___almod+3)& (0+255),w,b
  2124  0109A6  0A80               	xorlw	128
  2125  0109A8  6FD4               	movwf	(??_readPot+4)& (0+255),b
  2126  0109AA  51D3               	movf	(??_readPot+3)& (0+255),w,b
  2127  0109AC  0A80               	xorlw	128
  2128  0109AE  59D4               	subwfb	(??_readPot+4)& (0+255),w,b
  2129  0109B0  B0D8               	btfsc	status,0,c
  2130  0109B2  EFDD  F084         	goto	u1901
  2131  0109B6  EFDF  F084         	goto	u1900
  2132  0109BA                     u1901:
  2133  0109BA  EFE5  F084         	goto	l2387
  2134  0109BE                     u1900:
  2135  0109BE                     
  2136                           ; BSR set to: 5
  2137                           ;main.c: 325:             ledOff = 1;
  2138  0109BE  0E01               	movlw	1
  2139  0109C0  6E40               	movwf	_ledOff^(0+1280),c
  2140                           
  2141                           ;main.c: 326:             dacOff = 1;
  2142  0109C2  0E01               	movlw	1
  2143  0109C4  6E3F               	movwf	_dacOff^(0+1280),c
  2144                           
  2145                           ;main.c: 327:         }else{
  2146  0109C6  EFEC  F084         	goto	l2391
  2147  0109CA                     l2387:
  2148                           
  2149                           ; BSR set to: 5
  2150                           ;main.c: 328:             dacOff = 0;
  2151  0109CA  0E00               	movlw	0
  2152  0109CC  6E3F               	movwf	_dacOff^(0+1280),c
  2153  0109CE                     
  2154                           ; BSR set to: 5
  2155                           ;main.c: 329:             ledOff = 0 + CM2CON0bits.C2OUT;
  2156  0109CE  0100               	movlb	0	; () banked
  2157  0109D0  0E00               	movlw	0
  2158  0109D2  BD74               	btfsc	116,6,b	;volatile
  2159  0109D4  0E01               	movlw	1
  2160  0109D6  6E40               	movwf	_ledOff^(0+1280),c
  2161  0109D8                     l2391:
  2162                           
  2163                           ;main.c: 333:         temp = freqCounter >> 16;
  2164  0109D8  0061  F678  F533   	movff	_freqCounter+2,_temp
  2165  0109DE  0061  F67C  F534   	movff	_freqCounter+3,_temp+1
  2166  0109E4  6A35               	clrf	(_temp+2)^(0+1280),c
  2167  0109E6  6A36               	clrf	(_temp+3)^(0+1280),c
  2168  0109E8                     
  2169                           ;main.c: 334:         for(int i = 0; i < 8; ++i){
  2170  0109E8  0E00               	movlw	0
  2171  0109EA  0105               	movlb	5	; () banked
  2172  0109EC  6FDB               	movwf	(readPot@i+1)& (0+255),b
  2173  0109EE  0E00               	movlw	0
  2174  0109F0  6FDA               	movwf	readPot@i& (0+255),b
  2175  0109F2                     l2399:
  2176                           
  2177                           ; BSR set to: 5
  2178                           ;main.c: 335:             expScale = (temp + 512 * i) % 4096;
  2179  0109F2  0061  F768  F5D0   	movff	readPot@i,??_readPot
  2180  0109F8  0061  F76C  F5D1   	movff	readPot@i+1,??_readPot+1
  2181  0109FE  0E09               	movlw	9
  2182  010A00                     u1915:
  2183  010A00  90D8               	bcf	status,0,c
  2184  010A02  37D0               	rlcf	??_readPot& (0+255),f,b
  2185  010A04  37D1               	rlcf	(??_readPot+1)& (0+255),f,b
  2186  010A06  2EE8               	decfsz	wreg,f,c
  2187  010A08  EF00  F085         	goto	u1915
  2188  010A0C  0061  F740  F5D2   	movff	??_readPot,??_readPot+2
  2189  010A12  0061  F744  F5D3   	movff	??_readPot+1,??_readPot+3
  2190  010A18  0E00               	movlw	0
  2191  010A1A  BFD3               	btfsc	(??_readPot+3)& (0+255),7,b
  2192  010A1C  0EFF               	movlw	255
  2193  010A1E  6FD4               	movwf	(??_readPot+4)& (0+255),b
  2194  010A20  6FD5               	movwf	(??_readPot+5)& (0+255),b
  2195  010A22  5033               	movf	_temp^(0+1280),w,c
  2196  010A24  25D2               	addwf	(??_readPot+2)& (0+255),w,b
  2197  010A26  6FD6               	movwf	(??_readPot+6)& (0+255),b
  2198  010A28  5034               	movf	(_temp+1)^(0+1280),w,c
  2199  010A2A  21D3               	addwfc	(??_readPot+3)& (0+255),w,b
  2200  010A2C  6FD7               	movwf	(??_readPot+7)& (0+255),b
  2201  010A2E  5035               	movf	(_temp+2)^(0+1280),w,c
  2202  010A30  21D4               	addwfc	(??_readPot+4)& (0+255),w,b
  2203  010A32  6FD8               	movwf	(??_readPot+8)& (0+255),b
  2204  010A34  5036               	movf	(_temp+3)^(0+1280),w,c
  2205  010A36  21D5               	addwfc	(??_readPot+5)& (0+255),w,b
  2206  010A38  6FD9               	movwf	(??_readPot+9)& (0+255),b
  2207  010A3A  0EFF               	movlw	255
  2208  010A3C  15D6               	andwf	(??_readPot+6)& (0+255),w,b
  2209  010A3E  6F94               	movwf	_expScale& (0+255),b
  2210  010A40  0E0F               	movlw	15
  2211  010A42  15D7               	andwf	(??_readPot+7)& (0+255),w,b
  2212  010A44  6F95               	movwf	(_expScale+1)& (0+255),b
  2213  010A46  0E00               	movlw	0
  2214  010A48  15D8               	andwf	(??_readPot+8)& (0+255),w,b
  2215  010A4A  6F96               	movwf	(_expScale+2)& (0+255),b
  2216  010A4C  0E00               	movlw	0
  2217  010A4E  15D9               	andwf	(??_readPot+9)& (0+255),w,b
  2218  010A50  6F97               	movwf	(_expScale+3)& (0+255),b
  2219  010A52                     
  2220                           ; BSR set to: 5
  2221                           ;main.c: 337:             expScale = (expScale * expScale) >> 12;
  2222  010A52  0061  F650  F517   	movff	_expScale,___lmul@multiplier
  2223  010A58  0061  F654  F518   	movff	_expScale+1,___lmul@multiplier+1
  2224  010A5E  0061  F658  F519   	movff	_expScale+2,___lmul@multiplier+2
  2225  010A64  0061  F65C  F51A   	movff	_expScale+3,___lmul@multiplier+3
  2226  010A6A  0061  F650  F51B   	movff	_expScale,___lmul@multiplicand
  2227  010A70  0061  F654  F51C   	movff	_expScale+1,___lmul@multiplicand+1
  2228  010A76  0061  F658  F51D   	movff	_expScale+2,___lmul@multiplicand+2
  2229  010A7C  0061  F65C  F51E   	movff	_expScale+3,___lmul@multiplicand+3
  2230  010A82  EC3C  F088         	call	___lmul	;wreg free
  2231  010A86  0E0D               	movlw	13
  2232  010A88  EF4B  F085         	goto	u1920
  2233  010A8C                     u1925:
  2234  010A8C  90D8               	bcf	status,0,c
  2235  010A8E  321A               	rrcf	(?___lmul+3)^(0+1280),f,c
  2236  010A90  3219               	rrcf	(?___lmul+2)^(0+1280),f,c
  2237  010A92  3218               	rrcf	(?___lmul+1)^(0+1280),f,c
  2238  010A94  3217               	rrcf	?___lmul^(0+1280),f,c
  2239  010A96                     u1920:
  2240  010A96  2EE8               	decfsz	wreg,f,c
  2241  010A98  EF46  F085         	goto	u1925
  2242  010A9C  0061  F45C  F594   	movff	?___lmul,_expScale
  2243  010AA2  0061  F460  F595   	movff	?___lmul+1,_expScale+1
  2244  010AA8  0061  F464  F596   	movff	?___lmul+2,_expScale+2
  2245  010AAE  0061  F468  F597   	movff	?___lmul+3,_expScale+3
  2246  010AB4                     
  2247                           ;main.c: 339:             incr[!potArray][i] = expScale + 20;
  2248  010AB4  0E14               	movlw	20
  2249  010AB6  0105               	movlb	5	; () banked
  2250  010AB8  2594               	addwf	_expScale& (0+255),w,b
  2251  010ABA  6FD0               	movwf	??_readPot& (0+255),b
  2252  010ABC  0E00               	movlw	0
  2253  010ABE  2195               	addwfc	(_expScale+1)& (0+255),w,b
  2254  010AC0  6FD1               	movwf	(??_readPot+1)& (0+255),b
  2255  010AC2  5044               	movf	_potArray^(0+1280),w,c
  2256  010AC4  B4D8               	btfsc	status,2,c
  2257  010AC6  EF67  F085         	goto	u1931
  2258  010ACA  EF6A  F085         	goto	u1930
  2259  010ACE                     u1931:
  2260  010ACE  0E01               	movlw	1
  2261  010AD0  EF6B  F085         	goto	u1940
  2262  010AD4                     u1930:
  2263  010AD4  0E00               	movlw	0
  2264  010AD6                     u1940:
  2265  010AD6  6FD2               	movwf	(??_readPot+2)& (0+255),b
  2266  010AD8  6BD3               	clrf	(??_readPot+3)& (0+255),b
  2267  010ADA  3BD2               	swapf	(??_readPot+2)& (0+255),f,b
  2268  010ADC  3BD3               	swapf	(??_readPot+3)& (0+255),f,b
  2269  010ADE  0EF0               	movlw	240
  2270  010AE0  17D3               	andwf	(??_readPot+3)& (0+255),f,b
  2271  010AE2  51D2               	movf	(??_readPot+2)& (0+255),w,b
  2272  010AE4  0B0F               	andlw	15
  2273  010AE6  13D3               	iorwf	(??_readPot+3)& (0+255),f,b
  2274  010AE8  0EF0               	movlw	240
  2275  010AEA  17D2               	andwf	(??_readPot+2)& (0+255),f,b
  2276  010AEC  0E60               	movlw	low _incr
  2277  010AEE  6FD4               	movwf	(??_readPot+4)& (0+255),b
  2278  010AF0  0E05               	movlw	high _incr
  2279  010AF2  6FD5               	movwf	(??_readPot+5)& (0+255),b
  2280  010AF4  51D2               	movf	(??_readPot+2)& (0+255),w,b
  2281  010AF6  27D4               	addwf	(??_readPot+4)& (0+255),f,b
  2282  010AF8  51D3               	movf	(??_readPot+3)& (0+255),w,b
  2283  010AFA  23D5               	addwfc	(??_readPot+5)& (0+255),f,b
  2284  010AFC  90D8               	bcf	status,0,c
  2285  010AFE  35DA               	rlcf	readPot@i& (0+255),w,b
  2286  010B00  6ED9               	movwf	fsr2l,c
  2287  010B02  35DB               	rlcf	(readPot@i+1)& (0+255),w,b
  2288  010B04  6EDA               	movwf	fsr2h,c
  2289  010B06  51D4               	movf	(??_readPot+4)& (0+255),w,b
  2290  010B08  26D9               	addwf	fsr2l,f,c
  2291  010B0A  51D5               	movf	(??_readPot+5)& (0+255),w,b
  2292  010B0C  22DA               	addwfc	fsr2h,f,c
  2293  010B0E  0061  F740  F4DE   	movff	??_readPot,postinc2
  2294  010B14  0061  F744  F4DD   	movff	??_readPot+1,postdec2
  2295  010B1A                     
  2296                           ; BSR set to: 5
  2297                           ;main.c: 340:         }
  2298  010B1A  4BDA               	infsnz	readPot@i& (0+255),f,b
  2299  010B1C  2BDB               	incf	(readPot@i+1)& (0+255),f,b
  2300  010B1E                     
  2301                           ; BSR set to: 5
  2302  010B1E  BFDB               	btfsc	(readPot@i+1)& (0+255),7,b
  2303  010B20  EF9B  F085         	goto	u1951
  2304  010B24  51DB               	movf	(readPot@i+1)& (0+255),w,b
  2305  010B26  E109               	bnz	u1950
  2306  010B28  0E08               	movlw	8
  2307  010B2A  5DDA               	subwf	readPot@i& (0+255),w,b
  2308  010B2C  A0D8               	btfss	status,0,c
  2309  010B2E  EF9B  F085         	goto	u1951
  2310  010B32  EF9D  F085         	goto	u1950
  2311  010B36                     u1951:
  2312  010B36  EFF9  F084         	goto	l2399
  2313  010B3A                     u1950:
  2314  010B3A                     
  2315                           ; BSR set to: 5
  2316                           ;main.c: 342:         temp = temp % 8;
  2317  010B3A  0E07               	movlw	7
  2318  010B3C  1433               	andwf	_temp^(0+1280),w,c
  2319  010B3E  6E33               	movwf	_temp^(0+1280),c
  2320  010B40  0E00               	movlw	0
  2321  010B42  1434               	andwf	(_temp+1)^(0+1280),w,c
  2322  010B44  6E34               	movwf	(_temp+1)^(0+1280),c
  2323  010B46  0E00               	movlw	0
  2324  010B48  1435               	andwf	(_temp+2)^(0+1280),w,c
  2325  010B4A  6E35               	movwf	(_temp+2)^(0+1280),c
  2326  010B4C  0E00               	movlw	0
  2327  010B4E  1436               	andwf	(_temp+3)^(0+1280),w,c
  2328  010B50  6E36               	movwf	(_temp+3)^(0+1280),c
  2329                           
  2330                           ;main.c: 343:         if(lastTemp < temp){
  2331  010B52  51AC               	movf	_lastTemp& (0+255),w,b
  2332  010B54  6FD0               	movwf	??_readPot& (0+255),b
  2333  010B56  51AD               	movf	(_lastTemp+1)& (0+255),w,b
  2334  010B58  6FD1               	movwf	(??_readPot+1)& (0+255),b
  2335  010B5A  6BD2               	clrf	(??_readPot+2)& (0+255),b
  2336  010B5C  6BD3               	clrf	(??_readPot+3)& (0+255),b
  2337  010B5E  5033               	movf	_temp^(0+1280),w,c
  2338  010B60  5DD0               	subwf	??_readPot& (0+255),w,b
  2339  010B62  5034               	movf	(_temp+1)^(0+1280),w,c
  2340  010B64  59D1               	subwfb	(??_readPot+1)& (0+255),w,b
  2341  010B66  5035               	movf	(_temp+2)^(0+1280),w,c
  2342  010B68  59D2               	subwfb	(??_readPot+2)& (0+255),w,b
  2343  010B6A  5036               	movf	(_temp+3)^(0+1280),w,c
  2344  010B6C  59D3               	subwfb	(??_readPot+3)& (0+255),w,b
  2345  010B6E  B0D8               	btfsc	status,0,c
  2346  010B70  EFBC  F085         	goto	u1961
  2347  010B74  EFBE  F085         	goto	u1960
  2348  010B78                     u1961:
  2349  010B78  EFCC  F085         	goto	l2413
  2350  010B7C                     u1960:
  2351  010B7C                     
  2352                           ; BSR set to: 5
  2353                           ;main.c: 344:             shift1 = (shift1 + 1) % 9;
  2354  010B7C  0E01               	movlw	1
  2355  010B7E  2447               	addwf	_shift1^(0+1280),w,c
  2356  010B80  6E17               	movwf	___awmod@dividend^(0+1280),c
  2357  010B82  6A18               	clrf	(___awmod@dividend+1)^(0+1280),c
  2358  010B84  0E00               	movlw	0
  2359  010B86  2218               	addwfc	(___awmod@dividend+1)^(0+1280),f,c
  2360  010B88  0E00               	movlw	0
  2361  010B8A  6E1A               	movwf	(___awmod@divisor+1)^(0+1280),c
  2362  010B8C  0E09               	movlw	9
  2363  010B8E  6E19               	movwf	___awmod@divisor^(0+1280),c
  2364  010B90  ECFB  F086         	call	___awmod	;wreg free
  2365  010B94  5017               	movf	?___awmod^(0+1280),w,c
  2366  010B96  6E47               	movwf	_shift1^(0+1280),c
  2367  010B98                     l2413:
  2368                           
  2369                           ;main.c: 347:         lastTemp = temp;
  2370  010B98  0061  F4CC  F5AC   	movff	_temp,_lastTemp
  2371  010B9E  0061  F4D0  F5AD   	movff	_temp+1,_lastTemp+1
  2372                           
  2373                           ;main.c: 370:         clockVal = (1280000 / counterSave);
  2374  010BA4  0E00               	movlw	0
  2375  010BA6  6E17               	movwf	___lldiv@dividend^(0+1280),c
  2376  010BA8  0E88               	movlw	136
  2377  010BAA  6E18               	movwf	(___lldiv@dividend+1)^(0+1280),c
  2378  010BAC  0E13               	movlw	19
  2379  010BAE  6E19               	movwf	(___lldiv@dividend+2)^(0+1280),c
  2380  010BB0  0E00               	movlw	0
  2381  010BB2  6E1A               	movwf	(___lldiv@dividend+3)^(0+1280),c
  2382  010BB4  0061  F798  F51B   	movff	_counterSave,___lldiv@divisor
  2383  010BBA  0061  F79C  F51C   	movff	_counterSave+1,___lldiv@divisor+1
  2384  010BC0  0061  F7A0  F51D   	movff	_counterSave+2,___lldiv@divisor+2
  2385  010BC6  0061  F7A4  F51E   	movff	_counterSave+3,___lldiv@divisor+3
  2386  010BCC  ECAC  F087         	call	___lldiv	;wreg free
  2387  010BD0  0061  F45C  F598   	movff	?___lldiv,_clockVal
  2388  010BD6  0061  F460  F599   	movff	?___lldiv+1,_clockVal+1
  2389  010BDC  0061  F464  F59A   	movff	?___lldiv+2,_clockVal+2
  2390  010BE2  0061  F468  F59B   	movff	?___lldiv+3,_clockVal+3
  2391  010BE8                     
  2392                           ;main.c: 372:         potFlag = 1;
  2393  010BE8  0E01               	movlw	1
  2394  010BEA  6E45               	movwf	_potFlag^(0+1280),c
  2395  010BEC                     l567:
  2396  010BEC  0012               	return		;funcret
  2397  010BEE                     __end_of_readPot:
  2398                           	opt callstack 0
  2399                           
  2400 ;; *************** function _rand *****************
  2401 ;; Defined at:
  2402 ;;		line 15 in file "/Applications/microchip/xc8/v2.10/pic/sources/c99/common/rand.c"
  2403 ;; Parameters:    Size  Location     Type
  2404 ;;		None
  2405 ;; Auto vars:     Size  Location     Type
  2406 ;;		None
  2407 ;; Return value:  Size  Location     Type
  2408 ;;                  2   46[COMRAM] int 
  2409 ;; Registers used:
  2410 ;;		wreg, fsr2l, fsr2h, status,2, status,0, cstack
  2411 ;; Tracked objects:
  2412 ;;		On entry : 0/0
  2413 ;;		On exit  : 0/0
  2414 ;;		Unchanged: 0/0
  2415 ;; Data sizes:     COMRAM   BANK5   BANK6   BANK7   BANK8   BANK9  BANK10  BANK11  BANK12  BANK13  BANK14  BANK15  BANK1
      +6  BANK17  BANK18  BANK19  BANK20  BANK21  BANK22  BANK23  BANK24  BANK25  BANK26  BANK27  BANK28  BANK29  BANK30  BANK3
      +1  BANK32  BANK33  BANK34  BANK35  BANK36
  2416 ;;      Params:         2       0       0       0       0       0       0       0       0       0       0       0       
      +0       0       0       0       0       0       0       0       0       0       0       0       0       0       0       
      +0       0       0       0       0       0
  2417 ;;      Locals:         0       0       0       0       0       0       0       0       0       0       0       0       
      +0       0       0       0       0       0       0       0       0       0       0       0       0       0       0       
      +0       0       0       0       0       0
  2418 ;;      Temps:          0       8       0       0       0       0       0       0       0       0       0       0       
      +0       0       0       0       0       0       0       0       0       0       0       0       0       0       0       
      +0       0       0       0       0       0
  2419 ;;      Totals:         2       8       0       0       0       0       0       0       0       0       0       0       
      +0       0       0       0       0       0       0       0       0       0       0       0       0       0       0       
      +0       0       0       0       0       0
  2420 ;;Total ram usage:       10 bytes
  2421 ;; Hardware stack levels used:    1
  2422 ;; Hardware stack levels required when called:    5
  2423 ;; This function calls:
  2424 ;;		___omul
  2425 ;; This function is called by:
  2426 ;;		_readPot
  2427 ;; This function uses a non-reentrant model
  2428 ;;
  2429                           
  2430                           	psect	text2
  2431  010BEE                     __ptext2:
  2432                           	opt callstack 0
  2433  010BEE                     _rand:
  2434                           	opt callstack 121
  2435  010BEE  0061  F6E0  F517   	movff	_seed,___omul@multiplier
  2436  010BF4  0061  F6E4  F518   	movff	_seed+1,___omul@multiplier+1
  2437  010BFA  0061  F6E8  F519   	movff	_seed+2,___omul@multiplier+2
  2438  010C00  0061  F6EC  F51A   	movff	_seed+3,___omul@multiplier+3
  2439  010C06  0061  F6F0  F51B   	movff	_seed+4,___omul@multiplier+4
  2440  010C0C  0061  F6F4  F51C   	movff	_seed+5,___omul@multiplier+5
  2441  010C12  0061  F6F8  F51D   	movff	_seed+6,___omul@multiplier+6
  2442  010C18  0061  F6FC  F51E   	movff	_seed+7,___omul@multiplier+7
  2443  010C1E  0E2D               	movlw	45
  2444  010C20  6E1F               	movwf	___omul@multiplicand^(0+1280),c
  2445  010C22  0E7F               	movlw	127
  2446  010C24  6E20               	movwf	(___omul@multiplicand+1)^(0+1280),c
  2447  010C26  0E95               	movlw	149
  2448  010C28  6E21               	movwf	(___omul@multiplicand+2)^(0+1280),c
  2449  010C2A  0E4C               	movlw	76
  2450  010C2C  6E22               	movwf	(___omul@multiplicand+3)^(0+1280),c
  2451  010C2E  0E2D               	movlw	45
  2452  010C30  6E23               	movwf	(___omul@multiplicand+4)^(0+1280),c
  2453  010C32  0EF4               	movlw	244
  2454  010C34  6E24               	movwf	(___omul@multiplicand+5)^(0+1280),c
  2455  010C36  0E51               	movlw	81
  2456  010C38  6E25               	movwf	(___omul@multiplicand+6)^(0+1280),c
  2457  010C3A  0E58               	movlw	88
  2458  010C3C  6E26               	movwf	(___omul@multiplicand+7)^(0+1280),c
  2459  010C3E  EC55  F087         	call	___omul	;wreg free
  2460  010C42  0061  F45C  F5C0   	movff	?___omul,??_rand
  2461  010C48  0061  F460  F5C1   	movff	?___omul+1,??_rand+1
  2462  010C4E  0061  F464  F5C2   	movff	?___omul+2,??_rand+2
  2463  010C54  0061  F468  F5C3   	movff	?___omul+3,??_rand+3
  2464  010C5A  0061  F46C  F5C4   	movff	?___omul+4,??_rand+4
  2465  010C60  0061  F470  F5C5   	movff	?___omul+5,??_rand+5
  2466  010C66  0061  F474  F5C6   	movff	?___omul+6,??_rand+6
  2467  010C6C  0061  F478  F5C7   	movff	?___omul+7,??_rand+7
  2468  010C72  0E01               	movlw	1
  2469  010C74  0105               	movlb	5	; () banked
  2470  010C76  25C0               	addwf	??_rand& (0+255),w,b
  2471  010C78  6FB8               	movwf	_seed& (0+255),b
  2472  010C7A  0E00               	movlw	0
  2473  010C7C  21C1               	addwfc	(??_rand+1)& (0+255),w,b
  2474  010C7E  6FB9               	movwf	(_seed+1)& (0+255),b
  2475  010C80  0E00               	movlw	0
  2476  010C82  21C2               	addwfc	(??_rand+2)& (0+255),w,b
  2477  010C84  6FBA               	movwf	(_seed+2)& (0+255),b
  2478  010C86  0E00               	movlw	0
  2479  010C88  21C3               	addwfc	(??_rand+3)& (0+255),w,b
  2480  010C8A  6FBB               	movwf	(_seed+3)& (0+255),b
  2481  010C8C  0E00               	movlw	0
  2482  010C8E  21C4               	addwfc	(??_rand+4)& (0+255),w,b
  2483  010C90  6FBC               	movwf	(_seed+4)& (0+255),b
  2484  010C92  0E00               	movlw	0
  2485  010C94  21C5               	addwfc	(??_rand+5)& (0+255),w,b
  2486  010C96  6FBD               	movwf	(_seed+5)& (0+255),b
  2487  010C98  0E00               	movlw	0
  2488  010C9A  21C6               	addwfc	(??_rand+6)& (0+255),w,b
  2489  010C9C  6FBE               	movwf	(_seed+6)& (0+255),b
  2490  010C9E  0E00               	movlw	0
  2491  010CA0  21C7               	addwfc	(??_rand+7)& (0+255),w,b
  2492  010CA2  6FBF               	movwf	(_seed+7)& (0+255),b
  2493  010CA4                     
  2494                           ; BSR set to: 5
  2495  010CA4  0061  F6E0  F5C0   	movff	_seed,??_rand
  2496  010CAA  0061  F6E4  F5C1   	movff	_seed+1,??_rand+1
  2497  010CB0  0061  F6E8  F5C2   	movff	_seed+2,??_rand+2
  2498  010CB6  0061  F6EC  F5C3   	movff	_seed+3,??_rand+3
  2499  010CBC  0061  F6F0  F5C4   	movff	_seed+4,??_rand+4
  2500  010CC2  0061  F6F4  F5C5   	movff	_seed+5,??_rand+5
  2501  010CC8  0061  F6F8  F5C6   	movff	_seed+6,??_rand+6
  2502  010CCE  0061  F6FC  F5C7   	movff	_seed+7,??_rand+7
  2503  010CD4  0E32               	movlw	50
  2504  010CD6  EF76  F086         	goto	u1530
  2505  010CDA                     u1535:
  2506  010CDA  90D8               	bcf	status,0,c
  2507  010CDC  33C7               	rrcf	(??_rand+7)& (0+255),f,b
  2508  010CDE  33C6               	rrcf	(??_rand+6)& (0+255),f,b
  2509  010CE0  33C5               	rrcf	(??_rand+5)& (0+255),f,b
  2510  010CE2  33C4               	rrcf	(??_rand+4)& (0+255),f,b
  2511  010CE4  33C3               	rrcf	(??_rand+3)& (0+255),f,b
  2512  010CE6  33C2               	rrcf	(??_rand+2)& (0+255),f,b
  2513  010CE8  33C1               	rrcf	(??_rand+1)& (0+255),f,b
  2514  010CEA  33C0               	rrcf	??_rand& (0+255),f,b
  2515  010CEC                     u1530:
  2516  010CEC  2EE8               	decfsz	wreg,f,c
  2517  010CEE  EF6D  F086         	goto	u1535
  2518  010CF2  0061  F700  F52F   	movff	??_rand,?_rand
  2519  010CF8  0061  F708  F530   	movff	??_rand+2,?_rand+1
  2520  010CFE                     
  2521                           ; BSR set to: 5
  2522  010CFE  0012               	return		;funcret
  2523  010D00                     __end_of_rand:
  2524                           	opt callstack 0
  2525                           
  2526 ;; *************** function ___omul *****************
  2527 ;; Defined at:
  2528 ;;		line 91 in file "/Applications/microchip/xc8/v2.10/pic/sources/c99/common/Umul64.c"
  2529 ;; Parameters:    Size  Location     Type
  2530 ;;  multiplier      8   22[COMRAM] unsigned long long 
  2531 ;;  multiplicand    8   30[COMRAM] unsigned long long 
  2532 ;; Auto vars:     Size  Location     Type
  2533 ;;  product         8   38[COMRAM] unsigned long long 
  2534 ;; Return value:  Size  Location     Type
  2535 ;;                  8   22[COMRAM] unsigned long long 
  2536 ;; Registers used:
  2537 ;;		wreg, fsr2l, fsr2h, status,2, status,0
  2538 ;; Tracked objects:
  2539 ;;		On entry : 0/0
  2540 ;;		On exit  : 0/0
  2541 ;;		Unchanged: 0/0
  2542 ;; Data sizes:     COMRAM   BANK5   BANK6   BANK7   BANK8   BANK9  BANK10  BANK11  BANK12  BANK13  BANK14  BANK15  BANK1
      +6  BANK17  BANK18  BANK19  BANK20  BANK21  BANK22  BANK23  BANK24  BANK25  BANK26  BANK27  BANK28  BANK29  BANK30  BANK3
      +1  BANK32  BANK33  BANK34  BANK35  BANK36
  2543 ;;      Params:        16       0       0       0       0       0       0       0       0       0       0       0       
      +0       0       0       0       0       0       0       0       0       0       0       0       0       0       0       
      +0       0       0       0       0       0
  2544 ;;      Locals:         8       0       0       0       0       0       0       0       0       0       0       0       
      +0       0       0       0       0       0       0       0       0       0       0       0       0       0       0       
      +0       0       0       0       0       0
  2545 ;;      Temps:          0       0       0       0       0       0       0       0       0       0       0       0       
      +0       0       0       0       0       0       0       0       0       0       0       0       0       0       0       
      +0       0       0       0       0       0
  2546 ;;      Totals:        24       0       0       0       0       0       0       0       0       0       0       0       
      +0       0       0       0       0       0       0       0       0       0       0       0       0       0       0       
      +0       0       0       0       0       0
  2547 ;;Total ram usage:       24 bytes
  2548 ;; Hardware stack levels used:    1
  2549 ;; Hardware stack levels required when called:    4
  2550 ;; This function calls:
  2551 ;;		Nothing
  2552 ;; This function is called by:
  2553 ;;		_rand
  2554 ;; This function uses a non-reentrant model
  2555 ;;
  2556                           
  2557                           	psect	text3
  2558  010EAA                     __ptext3:
  2559                           	opt callstack 0
  2560  010EAA                     ___omul:
  2561                           	opt callstack 121
  2562  010EAA  EE21  F127         	lfsr	2,___omul@product
  2563  010EAE  0E07               	movlw	7
  2564  010EB0                     u1481:
  2565  010EB0  6ADE               	clrf	postinc2,c
  2566  010EB2  06E8               	decf	wreg,f,c
  2567  010EB4  E2FD               	bc	u1481
  2568  010EB6                     l2211:
  2569  010EB6  A017               	btfss	___omul@multiplier^(0+1280),0,c
  2570  010EB8  EF60  F087         	goto	u1491
  2571  010EBC  EF62  F087         	goto	u1490
  2572  010EC0                     u1491:
  2573  010EC0  EF72  F087         	goto	l2215
  2574  010EC4                     u1490:
  2575  010EC4  501F               	movf	___omul@multiplicand^(0+1280),w,c
  2576  010EC6  2627               	addwf	___omul@product^(0+1280),f,c
  2577  010EC8  5020               	movf	(___omul@multiplicand+1)^(0+1280),w,c
  2578  010ECA  2228               	addwfc	(___omul@product+1)^(0+1280),f,c
  2579  010ECC  5021               	movf	(___omul@multiplicand+2)^(0+1280),w,c
  2580  010ECE  2229               	addwfc	(___omul@product+2)^(0+1280),f,c
  2581  010ED0  5022               	movf	(___omul@multiplicand+3)^(0+1280),w,c
  2582  010ED2  222A               	addwfc	(___omul@product+3)^(0+1280),f,c
  2583  010ED4  5023               	movf	(___omul@multiplicand+4)^(0+1280),w,c
  2584  010ED6  222B               	addwfc	(___omul@product+4)^(0+1280),f,c
  2585  010ED8  5024               	movf	(___omul@multiplicand+5)^(0+1280),w,c
  2586  010EDA  222C               	addwfc	(___omul@product+5)^(0+1280),f,c
  2587  010EDC  5025               	movf	(___omul@multiplicand+6)^(0+1280),w,c
  2588  010EDE  222D               	addwfc	(___omul@product+6)^(0+1280),f,c
  2589  010EE0  5026               	movf	(___omul@multiplicand+7)^(0+1280),w,c
  2590  010EE2  222E               	addwfc	(___omul@product+7)^(0+1280),f,c
  2591  010EE4                     l2215:
  2592  010EE4  90D8               	bcf	status,0,c
  2593  010EE6  361F               	rlcf	___omul@multiplicand^(0+1280),f,c
  2594  010EE8  3620               	rlcf	(___omul@multiplicand+1)^(0+1280),f,c
  2595  010EEA  3621               	rlcf	(___omul@multiplicand+2)^(0+1280),f,c
  2596  010EEC  3622               	rlcf	(___omul@multiplicand+3)^(0+1280),f,c
  2597  010EEE  3623               	rlcf	(___omul@multiplicand+4)^(0+1280),f,c
  2598  010EF0  3624               	rlcf	(___omul@multiplicand+5)^(0+1280),f,c
  2599  010EF2  3625               	rlcf	(___omul@multiplicand+6)^(0+1280),f,c
  2600  010EF4  3626               	rlcf	(___omul@multiplicand+7)^(0+1280),f,c
  2601  010EF6  90D8               	bcf	status,0,c
  2602  010EF8  321E               	rrcf	(___omul@multiplier+7)^(0+1280),f,c
  2603  010EFA  321D               	rrcf	(___omul@multiplier+6)^(0+1280),f,c
  2604  010EFC  321C               	rrcf	(___omul@multiplier+5)^(0+1280),f,c
  2605  010EFE  321B               	rrcf	(___omul@multiplier+4)^(0+1280),f,c
  2606  010F00  321A               	rrcf	(___omul@multiplier+3)^(0+1280),f,c
  2607  010F02  3219               	rrcf	(___omul@multiplier+2)^(0+1280),f,c
  2608  010F04  3218               	rrcf	(___omul@multiplier+1)^(0+1280),f,c
  2609  010F06  3217               	rrcf	___omul@multiplier^(0+1280),f,c
  2610  010F08  5017               	movf	___omul@multiplier^(0+1280),w,c
  2611  010F0A  1018               	iorwf	(___omul@multiplier+1)^(0+1280),w,c
  2612  010F0C  1019               	iorwf	(___omul@multiplier+2)^(0+1280),w,c
  2613  010F0E  101A               	iorwf	(___omul@multiplier+3)^(0+1280),w,c
  2614  010F10  101B               	iorwf	(___omul@multiplier+4)^(0+1280),w,c
  2615  010F12  101C               	iorwf	(___omul@multiplier+5)^(0+1280),w,c
  2616  010F14  101D               	iorwf	(___omul@multiplier+6)^(0+1280),w,c
  2617  010F16  101E               	iorwf	(___omul@multiplier+7)^(0+1280),w,c
  2618  010F18  A4D8               	btfss	status,2,c
  2619  010F1A  EF91  F087         	goto	u1501
  2620  010F1E  EF93  F087         	goto	u1500
  2621  010F22                     u1501:
  2622  010F22  EF5B  F087         	goto	l2211
  2623  010F26                     u1500:
  2624  010F26  0061  F49C  F517   	movff	___omul@product,?___omul
  2625  010F2C  0061  F4A0  F518   	movff	___omul@product+1,?___omul+1
  2626  010F32  0061  F4A4  F519   	movff	___omul@product+2,?___omul+2
  2627  010F38  0061  F4A8  F51A   	movff	___omul@product+3,?___omul+3
  2628  010F3E  0061  F4AC  F51B   	movff	___omul@product+4,?___omul+4
  2629  010F44  0061  F4B0  F51C   	movff	___omul@product+5,?___omul+5
  2630  010F4A  0061  F4B4  F51D   	movff	___omul@product+6,?___omul+6
  2631  010F50  0061  F4B8  F51E   	movff	___omul@product+7,?___omul+7
  2632  010F56  0012               	return		;funcret
  2633  010F58                     __end_of___omul:
  2634                           	opt callstack 0
  2635                           
  2636 ;; *************** function ___lmul *****************
  2637 ;; Defined at:
  2638 ;;		line 15 in file "/Applications/microchip/xc8/v2.10/pic/sources/c99/common/Umul32.c"
  2639 ;; Parameters:    Size  Location     Type
  2640 ;;  multiplier      4   22[COMRAM] unsigned long 
  2641 ;;  multiplicand    4   26[COMRAM] unsigned long 
  2642 ;; Auto vars:     Size  Location     Type
  2643 ;;  product         4   30[COMRAM] unsigned long 
  2644 ;; Return value:  Size  Location     Type
  2645 ;;                  4   22[COMRAM] unsigned long 
  2646 ;; Registers used:
  2647 ;;		wreg, status,2, status,0
  2648 ;; Tracked objects:
  2649 ;;		On entry : 0/0
  2650 ;;		On exit  : 0/0
  2651 ;;		Unchanged: 0/0
  2652 ;; Data sizes:     COMRAM   BANK5   BANK6   BANK7   BANK8   BANK9  BANK10  BANK11  BANK12  BANK13  BANK14  BANK15  BANK1
      +6  BANK17  BANK18  BANK19  BANK20  BANK21  BANK22  BANK23  BANK24  BANK25  BANK26  BANK27  BANK28  BANK29  BANK30  BANK3
      +1  BANK32  BANK33  BANK34  BANK35  BANK36
  2653 ;;      Params:         8       0       0       0       0       0       0       0       0       0       0       0       
      +0       0       0       0       0       0       0       0       0       0       0       0       0       0       0       
      +0       0       0       0       0       0
  2654 ;;      Locals:         4       0       0       0       0       0       0       0       0       0       0       0       
      +0       0       0       0       0       0       0       0       0       0       0       0       0       0       0       
      +0       0       0       0       0       0
  2655 ;;      Temps:          0       0       0       0       0       0       0       0       0       0       0       0       
      +0       0       0       0       0       0       0       0       0       0       0       0       0       0       0       
      +0       0       0       0       0       0
  2656 ;;      Totals:        12       0       0       0       0       0       0       0       0       0       0       0       
      +0       0       0       0       0       0       0       0       0       0       0       0       0       0       0       
      +0       0       0       0       0       0
  2657 ;;Total ram usage:       12 bytes
  2658 ;; Hardware stack levels used:    1
  2659 ;; Hardware stack levels required when called:    4
  2660 ;; This function calls:
  2661 ;;		Nothing
  2662 ;; This function is called by:
  2663 ;;		_readPot
  2664 ;; This function uses a non-reentrant model
  2665 ;;
  2666                           
  2667                           	psect	text4
  2668  011078                     __ptext4:
  2669                           	opt callstack 0
  2670  011078                     ___lmul:
  2671                           	opt callstack 122
  2672  011078  0E00               	movlw	0
  2673  01107A  6E1F               	movwf	___lmul@product^(0+1280),c
  2674  01107C  0E00               	movlw	0
  2675  01107E  6E20               	movwf	(___lmul@product+1)^(0+1280),c
  2676  011080  0E00               	movlw	0
  2677  011082  6E21               	movwf	(___lmul@product+2)^(0+1280),c
  2678  011084  0E00               	movlw	0
  2679  011086  6E22               	movwf	(___lmul@product+3)^(0+1280),c
  2680  011088                     l2241:
  2681  011088  A017               	btfss	___lmul@multiplier^(0+1280),0,c
  2682  01108A  EF49  F088         	goto	u1541
  2683  01108E  EF4B  F088         	goto	u1540
  2684  011092                     u1541:
  2685  011092  EF53  F088         	goto	l2245
  2686  011096                     u1540:
  2687  011096  501B               	movf	___lmul@multiplicand^(0+1280),w,c
  2688  011098  261F               	addwf	___lmul@product^(0+1280),f,c
  2689  01109A  501C               	movf	(___lmul@multiplicand+1)^(0+1280),w,c
  2690  01109C  2220               	addwfc	(___lmul@product+1)^(0+1280),f,c
  2691  01109E  501D               	movf	(___lmul@multiplicand+2)^(0+1280),w,c
  2692  0110A0  2221               	addwfc	(___lmul@product+2)^(0+1280),f,c
  2693  0110A2  501E               	movf	(___lmul@multiplicand+3)^(0+1280),w,c
  2694  0110A4  2222               	addwfc	(___lmul@product+3)^(0+1280),f,c
  2695  0110A6                     l2245:
  2696  0110A6  90D8               	bcf	status,0,c
  2697  0110A8  361B               	rlcf	___lmul@multiplicand^(0+1280),f,c
  2698  0110AA  361C               	rlcf	(___lmul@multiplicand+1)^(0+1280),f,c
  2699  0110AC  361D               	rlcf	(___lmul@multiplicand+2)^(0+1280),f,c
  2700  0110AE  361E               	rlcf	(___lmul@multiplicand+3)^(0+1280),f,c
  2701  0110B0  90D8               	bcf	status,0,c
  2702  0110B2  321A               	rrcf	(___lmul@multiplier+3)^(0+1280),f,c
  2703  0110B4  3219               	rrcf	(___lmul@multiplier+2)^(0+1280),f,c
  2704  0110B6  3218               	rrcf	(___lmul@multiplier+1)^(0+1280),f,c
  2705  0110B8  3217               	rrcf	___lmul@multiplier^(0+1280),f,c
  2706  0110BA  5017               	movf	___lmul@multiplier^(0+1280),w,c
  2707  0110BC  1018               	iorwf	(___lmul@multiplier+1)^(0+1280),w,c
  2708  0110BE  1019               	iorwf	(___lmul@multiplier+2)^(0+1280),w,c
  2709  0110C0  101A               	iorwf	(___lmul@multiplier+3)^(0+1280),w,c
  2710  0110C2  A4D8               	btfss	status,2,c
  2711  0110C4  EF66  F088         	goto	u1551
  2712  0110C8  EF68  F088         	goto	u1550
  2713  0110CC                     u1551:
  2714  0110CC  EF44  F088         	goto	l2241
  2715  0110D0                     u1550:
  2716  0110D0  0061  F47C  F517   	movff	___lmul@product,?___lmul
  2717  0110D6  0061  F480  F518   	movff	___lmul@product+1,?___lmul+1
  2718  0110DC  0061  F484  F519   	movff	___lmul@product+2,?___lmul+2
  2719  0110E2  0061  F488  F51A   	movff	___lmul@product+3,?___lmul+3
  2720  0110E8  0012               	return		;funcret
  2721  0110EA                     __end_of___lmul:
  2722                           	opt callstack 0
  2723                           
  2724 ;; *************** function ___lldiv *****************
  2725 ;; Defined at:
  2726 ;;		line 7 in file "/Applications/microchip/xc8/v2.10/pic/sources/c99/common/__lldiv.c"
  2727 ;; Parameters:    Size  Location     Type
  2728 ;;  dividend        4   22[COMRAM] unsigned long 
  2729 ;;  divisor         4   26[COMRAM] unsigned long 
  2730 ;; Auto vars:     Size  Location     Type
  2731 ;;  quotient        4   30[COMRAM] unsigned long 
  2732 ;;  counter         1   34[COMRAM] unsigned char 
  2733 ;; Return value:  Size  Location     Type
  2734 ;;                  4   22[COMRAM] unsigned long 
  2735 ;; Registers used:
  2736 ;;		wreg, status,2, status,0
  2737 ;; Tracked objects:
  2738 ;;		On entry : 0/0
  2739 ;;		On exit  : 0/0
  2740 ;;		Unchanged: 0/0
  2741 ;; Data sizes:     COMRAM   BANK5   BANK6   BANK7   BANK8   BANK9  BANK10  BANK11  BANK12  BANK13  BANK14  BANK15  BANK1
      +6  BANK17  BANK18  BANK19  BANK20  BANK21  BANK22  BANK23  BANK24  BANK25  BANK26  BANK27  BANK28  BANK29  BANK30  BANK3
      +1  BANK32  BANK33  BANK34  BANK35  BANK36
  2742 ;;      Params:         8       0       0       0       0       0       0       0       0       0       0       0       
      +0       0       0       0       0       0       0       0       0       0       0       0       0       0       0       
      +0       0       0       0       0       0
  2743 ;;      Locals:         5       0       0       0       0       0       0       0       0       0       0       0       
      +0       0       0       0       0       0       0       0       0       0       0       0       0       0       0       
      +0       0       0       0       0       0
  2744 ;;      Temps:          0       0       0       0       0       0       0       0       0       0       0       0       
      +0       0       0       0       0       0       0       0       0       0       0       0       0       0       0       
      +0       0       0       0       0       0
  2745 ;;      Totals:        13       0       0       0       0       0       0       0       0       0       0       0       
      +0       0       0       0       0       0       0       0       0       0       0       0       0       0       0       
      +0       0       0       0       0       0
  2746 ;;Total ram usage:       13 bytes
  2747 ;; Hardware stack levels used:    1
  2748 ;; Hardware stack levels required when called:    4
  2749 ;; This function calls:
  2750 ;;		Nothing
  2751 ;; This function is called by:
  2752 ;;		_readPot
  2753 ;; This function uses a non-reentrant model
  2754 ;;
  2755                           
  2756                           	psect	text5
  2757  010F58                     __ptext5:
  2758                           	opt callstack 0
  2759  010F58                     ___lldiv:
  2760                           	opt callstack 122
  2761  010F58  0E00               	movlw	0
  2762  010F5A  6E1F               	movwf	___lldiv@quotient^(0+1280),c
  2763  010F5C  0E00               	movlw	0
  2764  010F5E  6E20               	movwf	(___lldiv@quotient+1)^(0+1280),c
  2765  010F60  0E00               	movlw	0
  2766  010F62  6E21               	movwf	(___lldiv@quotient+2)^(0+1280),c
  2767  010F64  0E00               	movlw	0
  2768  010F66  6E22               	movwf	(___lldiv@quotient+3)^(0+1280),c
  2769  010F68  501B               	movf	___lldiv@divisor^(0+1280),w,c
  2770  010F6A  101C               	iorwf	(___lldiv@divisor+1)^(0+1280),w,c
  2771  010F6C  101D               	iorwf	(___lldiv@divisor+2)^(0+1280),w,c
  2772  010F6E  101E               	iorwf	(___lldiv@divisor+3)^(0+1280),w,c
  2773  010F70  B4D8               	btfsc	status,2,c
  2774  010F72  EFBD  F087         	goto	u1561
  2775  010F76  EFBF  F087         	goto	u1560
  2776  010F7A                     u1561:
  2777  010F7A  EFF5  F087         	goto	l629
  2778  010F7E                     u1560:
  2779  010F7E  0E01               	movlw	1
  2780  010F80  6E23               	movwf	___lldiv@counter^(0+1280),c
  2781  010F82  EFC9  F087         	goto	l2257
  2782  010F86                     l2255:
  2783  010F86  90D8               	bcf	status,0,c
  2784  010F88  361B               	rlcf	___lldiv@divisor^(0+1280),f,c
  2785  010F8A  361C               	rlcf	(___lldiv@divisor+1)^(0+1280),f,c
  2786  010F8C  361D               	rlcf	(___lldiv@divisor+2)^(0+1280),f,c
  2787  010F8E  361E               	rlcf	(___lldiv@divisor+3)^(0+1280),f,c
  2788  010F90  2A23               	incf	___lldiv@counter^(0+1280),f,c
  2789  010F92                     l2257:
  2790  010F92  AE1E               	btfss	(___lldiv@divisor+3)^(0+1280),7,c
  2791  010F94  EFCE  F087         	goto	u1571
  2792  010F98  EFD0  F087         	goto	u1570
  2793  010F9C                     u1571:
  2794  010F9C  EFC3  F087         	goto	l2255
  2795  010FA0                     u1570:
  2796  010FA0                     l2259:
  2797  010FA0  90D8               	bcf	status,0,c
  2798  010FA2  361F               	rlcf	___lldiv@quotient^(0+1280),f,c
  2799  010FA4  3620               	rlcf	(___lldiv@quotient+1)^(0+1280),f,c
  2800  010FA6  3621               	rlcf	(___lldiv@quotient+2)^(0+1280),f,c
  2801  010FA8  3622               	rlcf	(___lldiv@quotient+3)^(0+1280),f,c
  2802  010FAA  501B               	movf	___lldiv@divisor^(0+1280),w,c
  2803  010FAC  5C17               	subwf	___lldiv@dividend^(0+1280),w,c
  2804  010FAE  501C               	movf	(___lldiv@divisor+1)^(0+1280),w,c
  2805  010FB0  5818               	subwfb	(___lldiv@dividend+1)^(0+1280),w,c
  2806  010FB2  501D               	movf	(___lldiv@divisor+2)^(0+1280),w,c
  2807  010FB4  5819               	subwfb	(___lldiv@dividend+2)^(0+1280),w,c
  2808  010FB6  501E               	movf	(___lldiv@divisor+3)^(0+1280),w,c
  2809  010FB8  581A               	subwfb	(___lldiv@dividend+3)^(0+1280),w,c
  2810  010FBA  A0D8               	btfss	status,0,c
  2811  010FBC  EFE2  F087         	goto	u1581
  2812  010FC0  EFE4  F087         	goto	u1580
  2813  010FC4                     u1581:
  2814  010FC4  EFED  F087         	goto	l2267
  2815  010FC8                     u1580:
  2816  010FC8  501B               	movf	___lldiv@divisor^(0+1280),w,c
  2817  010FCA  5E17               	subwf	___lldiv@dividend^(0+1280),f,c
  2818  010FCC  501C               	movf	(___lldiv@divisor+1)^(0+1280),w,c
  2819  010FCE  5A18               	subwfb	(___lldiv@dividend+1)^(0+1280),f,c
  2820  010FD0  501D               	movf	(___lldiv@divisor+2)^(0+1280),w,c
  2821  010FD2  5A19               	subwfb	(___lldiv@dividend+2)^(0+1280),f,c
  2822  010FD4  501E               	movf	(___lldiv@divisor+3)^(0+1280),w,c
  2823  010FD6  5A1A               	subwfb	(___lldiv@dividend+3)^(0+1280),f,c
  2824  010FD8  801F               	bsf	___lldiv@quotient^(0+1280),0,c
  2825  010FDA                     l2267:
  2826  010FDA  90D8               	bcf	status,0,c
  2827  010FDC  321E               	rrcf	(___lldiv@divisor+3)^(0+1280),f,c
  2828  010FDE  321D               	rrcf	(___lldiv@divisor+2)^(0+1280),f,c
  2829  010FE0  321C               	rrcf	(___lldiv@divisor+1)^(0+1280),f,c
  2830  010FE2  321B               	rrcf	___lldiv@divisor^(0+1280),f,c
  2831  010FE4  2E23               	decfsz	___lldiv@counter^(0+1280),f,c
  2832  010FE6  EFD0  F087         	goto	l2259
  2833  010FEA                     l629:
  2834  010FEA  0061  F47C  F517   	movff	___lldiv@quotient,?___lldiv
  2835  010FF0  0061  F480  F518   	movff	___lldiv@quotient+1,?___lldiv+1
  2836  010FF6  0061  F484  F519   	movff	___lldiv@quotient+2,?___lldiv+2
  2837  010FFC  0061  F488  F51A   	movff	___lldiv@quotient+3,?___lldiv+3
  2838  011002  0012               	return		;funcret
  2839  011004                     __end_of___lldiv:
  2840                           	opt callstack 0
  2841                           
  2842 ;; *************** function ___awmod *****************
  2843 ;; Defined at:
  2844 ;;		line 7 in file "/Applications/microchip/xc8/v2.10/pic/sources/c99/common/awmod.c"
  2845 ;; Parameters:    Size  Location     Type
  2846 ;;  dividend        2   22[COMRAM] int 
  2847 ;;  divisor         2   24[COMRAM] int 
  2848 ;; Auto vars:     Size  Location     Type
  2849 ;;  sign            1   27[COMRAM] unsigned char 
  2850 ;;  counter         1   26[COMRAM] unsigned char 
  2851 ;; Return value:  Size  Location     Type
  2852 ;;                  2   22[COMRAM] int 
  2853 ;; Registers used:
  2854 ;;		wreg, status,2, status,0
  2855 ;; Tracked objects:
  2856 ;;		On entry : 0/0
  2857 ;;		On exit  : 0/0
  2858 ;;		Unchanged: 0/0
  2859 ;; Data sizes:     COMRAM   BANK5   BANK6   BANK7   BANK8   BANK9  BANK10  BANK11  BANK12  BANK13  BANK14  BANK15  BANK1
      +6  BANK17  BANK18  BANK19  BANK20  BANK21  BANK22  BANK23  BANK24  BANK25  BANK26  BANK27  BANK28  BANK29  BANK30  BANK3
      +1  BANK32  BANK33  BANK34  BANK35  BANK36
  2860 ;;      Params:         4       0       0       0       0       0       0       0       0       0       0       0       
      +0       0       0       0       0       0       0       0       0       0       0       0       0       0       0       
      +0       0       0       0       0       0
  2861 ;;      Locals:         2       0       0       0       0       0       0       0       0       0       0       0       
      +0       0       0       0       0       0       0       0       0       0       0       0       0       0       0       
      +0       0       0       0       0       0
  2862 ;;      Temps:          0       0       0       0       0       0       0       0       0       0       0       0       
      +0       0       0       0       0       0       0       0       0       0       0       0       0       0       0       
      +0       0       0       0       0       0
  2863 ;;      Totals:         6       0       0       0       0       0       0       0       0       0       0       0       
      +0       0       0       0       0       0       0       0       0       0       0       0       0       0       0       
      +0       0       0       0       0       0
  2864 ;;Total ram usage:        6 bytes
  2865 ;; Hardware stack levels used:    1
  2866 ;; Hardware stack levels required when called:    4
  2867 ;; This function calls:
  2868 ;;		Nothing
  2869 ;; This function is called by:
  2870 ;;		_readPot
  2871 ;; This function uses a non-reentrant model
  2872 ;;
  2873                           
  2874                           	psect	text6
  2875  010DF6                     __ptext6:
  2876                           	opt callstack 0
  2877  010DF6                     ___awmod:
  2878                           	opt callstack 122
  2879  010DF6  0E00               	movlw	0
  2880  010DF8  6E1C               	movwf	___awmod@sign^(0+1280),c
  2881  010DFA  BE18               	btfsc	(___awmod@dividend+1)^(0+1280),7,c
  2882  010DFC  EF04  F087         	goto	u1650
  2883  010E00  EF02  F087         	goto	u1651
  2884  010E04                     u1651:
  2885  010E04  EF0A  F087         	goto	l2315
  2886  010E08                     u1650:
  2887  010E08  6C17               	negf	___awmod@dividend^(0+1280),c
  2888  010E0A  1E18               	comf	(___awmod@dividend+1)^(0+1280),f,c
  2889  010E0C  B0D8               	btfsc	status,0,c
  2890  010E0E  2A18               	incf	(___awmod@dividend+1)^(0+1280),f,c
  2891  010E10  0E01               	movlw	1
  2892  010E12  6E1C               	movwf	___awmod@sign^(0+1280),c
  2893  010E14                     l2315:
  2894  010E14  BE1A               	btfsc	(___awmod@divisor+1)^(0+1280),7,c
  2895  010E16  EF11  F087         	goto	u1660
  2896  010E1A  EF0F  F087         	goto	u1661
  2897  010E1E                     u1661:
  2898  010E1E  EF15  F087         	goto	l2319
  2899  010E22                     u1660:
  2900  010E22  6C19               	negf	___awmod@divisor^(0+1280),c
  2901  010E24  1E1A               	comf	(___awmod@divisor+1)^(0+1280),f,c
  2902  010E26  B0D8               	btfsc	status,0,c
  2903  010E28  2A1A               	incf	(___awmod@divisor+1)^(0+1280),f,c
  2904  010E2A                     l2319:
  2905  010E2A  5019               	movf	___awmod@divisor^(0+1280),w,c
  2906  010E2C  101A               	iorwf	(___awmod@divisor+1)^(0+1280),w,c
  2907  010E2E  B4D8               	btfsc	status,2,c
  2908  010E30  EF1C  F087         	goto	u1671
  2909  010E34  EF1E  F087         	goto	u1670
  2910  010E38                     u1671:
  2911  010E38  EF42  F087         	goto	l2335
  2912  010E3C                     u1670:
  2913  010E3C  0E01               	movlw	1
  2914  010E3E  6E1B               	movwf	___awmod@counter^(0+1280),c
  2915  010E40  EF26  F087         	goto	l2325
  2916  010E44                     l2323:
  2917  010E44  90D8               	bcf	status,0,c
  2918  010E46  3619               	rlcf	___awmod@divisor^(0+1280),f,c
  2919  010E48  361A               	rlcf	(___awmod@divisor+1)^(0+1280),f,c
  2920  010E4A  2A1B               	incf	___awmod@counter^(0+1280),f,c
  2921  010E4C                     l2325:
  2922  010E4C  AE1A               	btfss	(___awmod@divisor+1)^(0+1280),7,c
  2923  010E4E  EF2B  F087         	goto	u1681
  2924  010E52  EF2D  F087         	goto	u1680
  2925  010E56                     u1681:
  2926  010E56  EF22  F087         	goto	l2323
  2927  010E5A                     u1680:
  2928  010E5A                     l2327:
  2929  010E5A  5019               	movf	___awmod@divisor^(0+1280),w,c
  2930  010E5C  5C17               	subwf	___awmod@dividend^(0+1280),w,c
  2931  010E5E  501A               	movf	(___awmod@divisor+1)^(0+1280),w,c
  2932  010E60  5818               	subwfb	(___awmod@dividend+1)^(0+1280),w,c
  2933  010E62  A0D8               	btfss	status,0,c
  2934  010E64  EF36  F087         	goto	u1691
  2935  010E68  EF38  F087         	goto	u1690
  2936  010E6C                     u1691:
  2937  010E6C  EF3C  F087         	goto	l2331
  2938  010E70                     u1690:
  2939  010E70  5019               	movf	___awmod@divisor^(0+1280),w,c
  2940  010E72  5E17               	subwf	___awmod@dividend^(0+1280),f,c
  2941  010E74  501A               	movf	(___awmod@divisor+1)^(0+1280),w,c
  2942  010E76  5A18               	subwfb	(___awmod@dividend+1)^(0+1280),f,c
  2943  010E78                     l2331:
  2944  010E78  90D8               	bcf	status,0,c
  2945  010E7A  321A               	rrcf	(___awmod@divisor+1)^(0+1280),f,c
  2946  010E7C  3219               	rrcf	___awmod@divisor^(0+1280),f,c
  2947  010E7E  2E1B               	decfsz	___awmod@counter^(0+1280),f,c
  2948  010E80  EF2D  F087         	goto	l2327
  2949  010E84                     l2335:
  2950  010E84  501C               	movf	___awmod@sign^(0+1280),w,c
  2951  010E86  B4D8               	btfsc	status,2,c
  2952  010E88  EF48  F087         	goto	u1701
  2953  010E8C  EF4A  F087         	goto	u1700
  2954  010E90                     u1701:
  2955  010E90  EF4E  F087         	goto	l2339
  2956  010E94                     u1700:
  2957  010E94  6C17               	negf	___awmod@dividend^(0+1280),c
  2958  010E96  1E18               	comf	(___awmod@dividend+1)^(0+1280),f,c
  2959  010E98  B0D8               	btfsc	status,0,c
  2960  010E9A  2A18               	incf	(___awmod@dividend+1)^(0+1280),f,c
  2961  010E9C                     l2339:
  2962  010E9C  0061  F45C  F517   	movff	___awmod@dividend,?___awmod
  2963  010EA2  0061  F460  F518   	movff	___awmod@dividend+1,?___awmod+1
  2964  010EA8  0012               	return		;funcret
  2965  010EAA                     __end_of___awmod:
  2966                           	opt callstack 0
  2967                           
  2968 ;; *************** function ___almod *****************
  2969 ;; Defined at:
  2970 ;;		line 7 in file "/Applications/microchip/xc8/v2.10/pic/sources/c99/common/almod.c"
  2971 ;; Parameters:    Size  Location     Type
  2972 ;;  dividend        4    8[BANK5 ] long 
  2973 ;;  divisor         4   12[BANK5 ] long 
  2974 ;; Auto vars:     Size  Location     Type
  2975 ;;  sign            1   49[COMRAM] unsigned char 
  2976 ;;  counter         1   48[COMRAM] unsigned char 
  2977 ;; Return value:  Size  Location     Type
  2978 ;;                  4    8[BANK5 ] long 
  2979 ;; Registers used:
  2980 ;;		wreg, status,2, status,0
  2981 ;; Tracked objects:
  2982 ;;		On entry : 0/0
  2983 ;;		On exit  : 0/0
  2984 ;;		Unchanged: 0/0
  2985 ;; Data sizes:     COMRAM   BANK5   BANK6   BANK7   BANK8   BANK9  BANK10  BANK11  BANK12  BANK13  BANK14  BANK15  BANK1
      +6  BANK17  BANK18  BANK19  BANK20  BANK21  BANK22  BANK23  BANK24  BANK25  BANK26  BANK27  BANK28  BANK29  BANK30  BANK3
      +1  BANK32  BANK33  BANK34  BANK35  BANK36
  2986 ;;      Params:         0       8       0       0       0       0       0       0       0       0       0       0       
      +0       0       0       0       0       0       0       0       0       0       0       0       0       0       0       
      +0       0       0       0       0       0
  2987 ;;      Locals:         2       0       0       0       0       0       0       0       0       0       0       0       
      +0       0       0       0       0       0       0       0       0       0       0       0       0       0       0       
      +0       0       0       0       0       0
  2988 ;;      Temps:          0       0       0       0       0       0       0       0       0       0       0       0       
      +0       0       0       0       0       0       0       0       0       0       0       0       0       0       0       
      +0       0       0       0       0       0
  2989 ;;      Totals:         2       8       0       0       0       0       0       0       0       0       0       0       
      +0       0       0       0       0       0       0       0       0       0       0       0       0       0       0       
      +0       0       0       0       0       0
  2990 ;;Total ram usage:       10 bytes
  2991 ;; Hardware stack levels used:    1
  2992 ;; Hardware stack levels required when called:    4
  2993 ;; This function calls:
  2994 ;;		Nothing
  2995 ;; This function is called by:
  2996 ;;		_readPot
  2997 ;; This function uses a non-reentrant model
  2998 ;;
  2999                           
  3000                           	psect	text7
  3001  010D00                     __ptext7:
  3002                           	opt callstack 0
  3003  010D00                     ___almod:
  3004                           	opt callstack 122
  3005  010D00  0E00               	movlw	0
  3006  010D02  6E32               	movwf	___almod@sign^(0+1280),c
  3007  010D04  0105               	movlb	5	; () banked
  3008  010D06  BFCB               	btfsc	(___almod@dividend+3)& (0+255),7,b
  3009  010D08  EF8A  F086         	goto	u1590
  3010  010D0C  EF88  F086         	goto	u1591
  3011  010D10                     u1591:
  3012  010D10  EF94  F086         	goto	l2279
  3013  010D14                     u1590:
  3014  010D14                     
  3015                           ; BSR set to: 5
  3016  010D14  1FCB               	comf	(___almod@dividend+3)& (0+255),f,b
  3017  010D16  1FCA               	comf	(___almod@dividend+2)& (0+255),f,b
  3018  010D18  1FC9               	comf	(___almod@dividend+1)& (0+255),f,b
  3019  010D1A  6DC8               	negf	___almod@dividend& (0+255),b
  3020  010D1C  0E00               	movlw	0
  3021  010D1E  23C9               	addwfc	(___almod@dividend+1)& (0+255),f,b
  3022  010D20  23CA               	addwfc	(___almod@dividend+2)& (0+255),f,b
  3023  010D22  23CB               	addwfc	(___almod@dividend+3)& (0+255),f,b
  3024  010D24                     
  3025                           ; BSR set to: 5
  3026  010D24  0E01               	movlw	1
  3027  010D26  6E32               	movwf	___almod@sign^(0+1280),c
  3028  010D28                     l2279:
  3029                           
  3030                           ; BSR set to: 5
  3031  010D28  BFCF               	btfsc	(___almod@divisor+3)& (0+255),7,b
  3032  010D2A  EF9B  F086         	goto	u1600
  3033  010D2E  EF99  F086         	goto	u1601
  3034  010D32                     u1601:
  3035  010D32  EFA3  F086         	goto	l2283
  3036  010D36                     u1600:
  3037  010D36                     
  3038                           ; BSR set to: 5
  3039  010D36  1FCF               	comf	(___almod@divisor+3)& (0+255),f,b
  3040  010D38  1FCE               	comf	(___almod@divisor+2)& (0+255),f,b
  3041  010D3A  1FCD               	comf	(___almod@divisor+1)& (0+255),f,b
  3042  010D3C  6DCC               	negf	___almod@divisor& (0+255),b
  3043  010D3E  0E00               	movlw	0
  3044  010D40  23CD               	addwfc	(___almod@divisor+1)& (0+255),f,b
  3045  010D42  23CE               	addwfc	(___almod@divisor+2)& (0+255),f,b
  3046  010D44  23CF               	addwfc	(___almod@divisor+3)& (0+255),f,b
  3047  010D46                     l2283:
  3048                           
  3049                           ; BSR set to: 5
  3050  010D46  51CC               	movf	___almod@divisor& (0+255),w,b
  3051  010D48  11CD               	iorwf	(___almod@divisor+1)& (0+255),w,b
  3052  010D4A  11CE               	iorwf	(___almod@divisor+2)& (0+255),w,b
  3053  010D4C  11CF               	iorwf	(___almod@divisor+3)& (0+255),w,b
  3054  010D4E  B4D8               	btfsc	status,2,c
  3055  010D50  EFAC  F086         	goto	u1611
  3056  010D54  EFAE  F086         	goto	u1610
  3057  010D58                     u1611:
  3058  010D58  EFDE  F086         	goto	l2299
  3059  010D5C                     u1610:
  3060  010D5C                     
  3061                           ; BSR set to: 5
  3062  010D5C  0E01               	movlw	1
  3063  010D5E  6E31               	movwf	___almod@counter^(0+1280),c
  3064  010D60  EFB8  F086         	goto	l2289
  3065  010D64                     l2287:
  3066                           
  3067                           ; BSR set to: 5
  3068  010D64  90D8               	bcf	status,0,c
  3069  010D66  37CC               	rlcf	___almod@divisor& (0+255),f,b
  3070  010D68  37CD               	rlcf	(___almod@divisor+1)& (0+255),f,b
  3071  010D6A  37CE               	rlcf	(___almod@divisor+2)& (0+255),f,b
  3072  010D6C  37CF               	rlcf	(___almod@divisor+3)& (0+255),f,b
  3073  010D6E  2A31               	incf	___almod@counter^(0+1280),f,c
  3074  010D70                     l2289:
  3075                           
  3076                           ; BSR set to: 5
  3077  010D70  AFCF               	btfss	(___almod@divisor+3)& (0+255),7,b
  3078  010D72  EFBD  F086         	goto	u1621
  3079  010D76  EFBF  F086         	goto	u1620
  3080  010D7A                     u1621:
  3081  010D7A  EFB2  F086         	goto	l2287
  3082  010D7E                     u1620:
  3083  010D7E                     l2291:
  3084                           
  3085                           ; BSR set to: 5
  3086  010D7E  51CC               	movf	___almod@divisor& (0+255),w,b
  3087  010D80  5DC8               	subwf	___almod@dividend& (0+255),w,b
  3088  010D82  51CD               	movf	(___almod@divisor+1)& (0+255),w,b
  3089  010D84  59C9               	subwfb	(___almod@dividend+1)& (0+255),w,b
  3090  010D86  51CE               	movf	(___almod@divisor+2)& (0+255),w,b
  3091  010D88  59CA               	subwfb	(___almod@dividend+2)& (0+255),w,b
  3092  010D8A  51CF               	movf	(___almod@divisor+3)& (0+255),w,b
  3093  010D8C  59CB               	subwfb	(___almod@dividend+3)& (0+255),w,b
  3094  010D8E  A0D8               	btfss	status,0,c
  3095  010D90  EFCC  F086         	goto	u1631
  3096  010D94  EFCE  F086         	goto	u1630
  3097  010D98                     u1631:
  3098  010D98  EFD6  F086         	goto	l2295
  3099  010D9C                     u1630:
  3100  010D9C                     
  3101                           ; BSR set to: 5
  3102  010D9C  51CC               	movf	___almod@divisor& (0+255),w,b
  3103  010D9E  5FC8               	subwf	___almod@dividend& (0+255),f,b
  3104  010DA0  51CD               	movf	(___almod@divisor+1)& (0+255),w,b
  3105  010DA2  5BC9               	subwfb	(___almod@dividend+1)& (0+255),f,b
  3106  010DA4  51CE               	movf	(___almod@divisor+2)& (0+255),w,b
  3107  010DA6  5BCA               	subwfb	(___almod@dividend+2)& (0+255),f,b
  3108  010DA8  51CF               	movf	(___almod@divisor+3)& (0+255),w,b
  3109  010DAA  5BCB               	subwfb	(___almod@dividend+3)& (0+255),f,b
  3110  010DAC                     l2295:
  3111                           
  3112                           ; BSR set to: 5
  3113  010DAC  90D8               	bcf	status,0,c
  3114  010DAE  33CF               	rrcf	(___almod@divisor+3)& (0+255),f,b
  3115  010DB0  33CE               	rrcf	(___almod@divisor+2)& (0+255),f,b
  3116  010DB2  33CD               	rrcf	(___almod@divisor+1)& (0+255),f,b
  3117  010DB4  33CC               	rrcf	___almod@divisor& (0+255),f,b
  3118  010DB6                     
  3119                           ; BSR set to: 5
  3120  010DB6  2E31               	decfsz	___almod@counter^(0+1280),f,c
  3121  010DB8  EFBF  F086         	goto	l2291
  3122  010DBC                     l2299:
  3123                           
  3124                           ; BSR set to: 5
  3125  010DBC  5032               	movf	___almod@sign^(0+1280),w,c
  3126  010DBE  B4D8               	btfsc	status,2,c
  3127  010DC0  EFE4  F086         	goto	u1641
  3128  010DC4  EFE6  F086         	goto	u1640
  3129  010DC8                     u1641:
  3130  010DC8  EFEE  F086         	goto	l2303
  3131  010DCC                     u1640:
  3132  010DCC                     
  3133                           ; BSR set to: 5
  3134  010DCC  1FCB               	comf	(___almod@dividend+3)& (0+255),f,b
  3135  010DCE  1FCA               	comf	(___almod@dividend+2)& (0+255),f,b
  3136  010DD0  1FC9               	comf	(___almod@dividend+1)& (0+255),f,b
  3137  010DD2  6DC8               	negf	___almod@dividend& (0+255),b
  3138  010DD4  0E00               	movlw	0
  3139  010DD6  23C9               	addwfc	(___almod@dividend+1)& (0+255),f,b
  3140  010DD8  23CA               	addwfc	(___almod@dividend+2)& (0+255),f,b
  3141  010DDA  23CB               	addwfc	(___almod@dividend+3)& (0+255),f,b
  3142  010DDC                     l2303:
  3143                           
  3144                           ; BSR set to: 5
  3145  010DDC  0061  F720  F5C8   	movff	___almod@dividend,?___almod
  3146  010DE2  0061  F724  F5C9   	movff	___almod@dividend+1,?___almod+1
  3147  010DE8  0061  F728  F5CA   	movff	___almod@dividend+2,?___almod+2
  3148  010DEE  0061  F72C  F5CB   	movff	___almod@dividend+3,?___almod+3
  3149  010DF4                     
  3150                           ; BSR set to: 5
  3151  010DF4  0012               	return		;funcret
  3152  010DF6                     __end_of___almod:
  3153                           	opt callstack 0
  3154                           
  3155 ;; *************** function _ADCC_StartConversion *****************
  3156 ;; Defined at:
  3157 ;;		line 113 in file "mcc_generated_files/adcc.c"
  3158 ;; Parameters:    Size  Location     Type
  3159 ;;  channel         1    wreg     enum E15837
  3160 ;; Auto vars:     Size  Location     Type
  3161 ;;  channel         1   22[COMRAM] enum E15837
  3162 ;; Return value:  Size  Location     Type
  3163 ;;                  1    wreg      void 
  3164 ;; Registers used:
  3165 ;;		wreg
  3166 ;; Tracked objects:
  3167 ;;		On entry : 0/0
  3168 ;;		On exit  : 0/0
  3169 ;;		Unchanged: 0/0
  3170 ;; Data sizes:     COMRAM   BANK5   BANK6   BANK7   BANK8   BANK9  BANK10  BANK11  BANK12  BANK13  BANK14  BANK15  BANK1
      +6  BANK17  BANK18  BANK19  BANK20  BANK21  BANK22  BANK23  BANK24  BANK25  BANK26  BANK27  BANK28  BANK29  BANK30  BANK3
      +1  BANK32  BANK33  BANK34  BANK35  BANK36
  3171 ;;      Params:         0       0       0       0       0       0       0       0       0       0       0       0       
      +0       0       0       0       0       0       0       0       0       0       0       0       0       0       0       
      +0       0       0       0       0       0
  3172 ;;      Locals:         1       0       0       0       0       0       0       0       0       0       0       0       
      +0       0       0       0       0       0       0       0       0       0       0       0       0       0       0       
      +0       0       0       0       0       0
  3173 ;;      Temps:          0       0       0       0       0       0       0       0       0       0       0       0       
      +0       0       0       0       0       0       0       0       0       0       0       0       0       0       0       
      +0       0       0       0       0       0
  3174 ;;      Totals:         1       0       0       0       0       0       0       0       0       0       0       0       
      +0       0       0       0       0       0       0       0       0       0       0       0       0       0       0       
      +0       0       0       0       0       0
  3175 ;;Total ram usage:        1 bytes
  3176 ;; Hardware stack levels used:    1
  3177 ;; Hardware stack levels required when called:    4
  3178 ;; This function calls:
  3179 ;;		Nothing
  3180 ;; This function is called by:
  3181 ;;		_readPot
  3182 ;; This function uses a non-reentrant model
  3183 ;;
  3184                           
  3185                           	psect	text8
  3186  0113E8                     __ptext8:
  3187                           	opt callstack 0
  3188  0113E8                     _ADCC_StartConversion:
  3189                           	opt callstack 122
  3190                           
  3191                           ; BSR set to: 5
  3192                           ;incstack = 0
  3193                           ;ADCC_StartConversion@channel stored from wreg
  3194  0113E8  6E17               	movwf	ADCC_StartConversion@channel^(0+1280),c
  3195  0113EA                     
  3196                           ;mcc_generated_files/adcc.c: 113: void ADCC_StartConversion(adcc_channel_t channel);mcc_
      +                          generated_files/adcc.c: 114: {;mcc_generated_files/adcc.c: 116:     ADPCH = channel;
  3197  0113EA  0061  F45C  F3EC   	movff	ADCC_StartConversion@channel,1004	;volatile
  3198  0113F0                     
  3199                           ;mcc_generated_files/adcc.c: 119:     ADCON0bits.ADON = 1;
  3200  0113F0  0103               	movlb	3	; () banked
  3201  0113F2  8FF3               	bsf	243,7,b	;volatile
  3202  0113F4                     
  3203                           ; BSR set to: 3
  3204                           ;mcc_generated_files/adcc.c: 122:     ADCON0bits.ADGO = 1;
  3205  0113F4  81F3               	bsf	243,0,b	;volatile
  3206  0113F6                     
  3207                           ; BSR set to: 3
  3208  0113F6  0012               	return		;funcret
  3209  0113F8                     __end_of_ADCC_StartConversion:
  3210                           	opt callstack 0
  3211                           
  3212 ;; *************** function _ADCC_IsConversionDone *****************
  3213 ;; Defined at:
  3214 ;;		line 125 in file "mcc_generated_files/adcc.c"
  3215 ;; Parameters:    Size  Location     Type
  3216 ;;		None
  3217 ;; Auto vars:     Size  Location     Type
  3218 ;;		None
  3219 ;; Return value:  Size  Location     Type
  3220 ;;                  1    wreg      _Bool 
  3221 ;; Registers used:
  3222 ;;		wreg
  3223 ;; Tracked objects:
  3224 ;;		On entry : 0/0
  3225 ;;		On exit  : 0/0
  3226 ;;		Unchanged: 0/0
  3227 ;; Data sizes:     COMRAM   BANK5   BANK6   BANK7   BANK8   BANK9  BANK10  BANK11  BANK12  BANK13  BANK14  BANK15  BANK1
      +6  BANK17  BANK18  BANK19  BANK20  BANK21  BANK22  BANK23  BANK24  BANK25  BANK26  BANK27  BANK28  BANK29  BANK30  BANK3
      +1  BANK32  BANK33  BANK34  BANK35  BANK36
  3228 ;;      Params:         0       0       0       0       0       0       0       0       0       0       0       0       
      +0       0       0       0       0       0       0       0       0       0       0       0       0       0       0       
      +0       0       0       0       0       0
  3229 ;;      Locals:         0       0       0       0       0       0       0       0       0       0       0       0       
      +0       0       0       0       0       0       0       0       0       0       0       0       0       0       0       
      +0       0       0       0       0       0
  3230 ;;      Temps:          0       0       0       0       0       0       0       0       0       0       0       0       
      +0       0       0       0       0       0       0       0       0       0       0       0       0       0       0       
      +0       0       0       0       0       0
  3231 ;;      Totals:         0       0       0       0       0       0       0       0       0       0       0       0       
      +0       0       0       0       0       0       0       0       0       0       0       0       0       0       0       
      +0       0       0       0       0       0
  3232 ;;Total ram usage:        0 bytes
  3233 ;; Hardware stack levels used:    1
  3234 ;; Hardware stack levels required when called:    4
  3235 ;; This function calls:
  3236 ;;		Nothing
  3237 ;; This function is called by:
  3238 ;;		_readPot
  3239 ;; This function uses a non-reentrant model
  3240 ;;
  3241                           
  3242                           	psect	text9
  3243  011380                     __ptext9:
  3244                           	opt callstack 0
  3245  011380                     _ADCC_IsConversionDone:
  3246                           	opt callstack 122
  3247  011380                     
  3248                           ;mcc_generated_files/adcc.c: 128:     return ((unsigned char)(!ADCON0bits.ADGO));
  3249  011380  0103               	movlb	3	; () banked
  3250  011382  A1F3               	btfss	243,0,b	;volatile
  3251  011384  EFC6  F089         	goto	u1511
  3252  011388  EFC9  F089         	goto	u1510
  3253  01138C                     u1511:
  3254  01138C  0E01               	movlw	1
  3255  01138E  EFCA  F089         	goto	u1520
  3256  011392                     u1510:
  3257  011392  0E00               	movlw	0
  3258  011394                     u1520:
  3259  011394                     
  3260                           ; BSR set to: 3
  3261  011394  0012               	return		;funcret
  3262  011396                     __end_of_ADCC_IsConversionDone:
  3263                           	opt callstack 0
  3264                           
  3265 ;; *************** function _ADCC_GetConversionResult *****************
  3266 ;; Defined at:
  3267 ;;		line 131 in file "mcc_generated_files/adcc.c"
  3268 ;; Parameters:    Size  Location     Type
  3269 ;;		None
  3270 ;; Auto vars:     Size  Location     Type
  3271 ;;		None
  3272 ;; Return value:  Size  Location     Type
  3273 ;;                  2   22[COMRAM] unsigned short 
  3274 ;; Registers used:
  3275 ;;		wreg, status,2, status,0
  3276 ;; Tracked objects:
  3277 ;;		On entry : 0/0
  3278 ;;		On exit  : 0/0
  3279 ;;		Unchanged: 0/0
  3280 ;; Data sizes:     COMRAM   BANK5   BANK6   BANK7   BANK8   BANK9  BANK10  BANK11  BANK12  BANK13  BANK14  BANK15  BANK1
      +6  BANK17  BANK18  BANK19  BANK20  BANK21  BANK22  BANK23  BANK24  BANK25  BANK26  BANK27  BANK28  BANK29  BANK30  BANK3
      +1  BANK32  BANK33  BANK34  BANK35  BANK36
  3281 ;;      Params:         2       0       0       0       0       0       0       0       0       0       0       0       
      +0       0       0       0       0       0       0       0       0       0       0       0       0       0       0       
      +0       0       0       0       0       0
  3282 ;;      Locals:         0       0       0       0       0       0       0       0       0       0       0       0       
      +0       0       0       0       0       0       0       0       0       0       0       0       0       0       0       
      +0       0       0       0       0       0
  3283 ;;      Temps:          2       0       0       0       0       0       0       0       0       0       0       0       
      +0       0       0       0       0       0       0       0       0       0       0       0       0       0       0       
      +0       0       0       0       0       0
  3284 ;;      Totals:         4       0       0       0       0       0       0       0       0       0       0       0       
      +0       0       0       0       0       0       0       0       0       0       0       0       0       0       0       
      +0       0       0       0       0       0
  3285 ;;Total ram usage:        4 bytes
  3286 ;; Hardware stack levels used:    1
  3287 ;; Hardware stack levels required when called:    4
  3288 ;; This function calls:
  3289 ;;		Nothing
  3290 ;; This function is called by:
  3291 ;;		_readPot
  3292 ;; This function uses a non-reentrant model
  3293 ;;
  3294                           
  3295                           	psect	text10
  3296  011396                     __ptext10:
  3297                           	opt callstack 0
  3298  011396                     _ADCC_GetConversionResult:
  3299                           	opt callstack 122
  3300  011396                     
  3301                           ;mcc_generated_files/adcc.c: 134:     return ((adc_result_t)((ADRESH << 8) + ADRESL));
  3302  011396  0103               	movlb	3	; () banked
  3303  011398  51EB               	movf	235,w,b	;volatile
  3304  01139A  6E1A               	movwf	(??_ADCC_GetConversionResult+1)^(0+1280),c
  3305  01139C  6A19               	clrf	??_ADCC_GetConversionResult^(0+1280),c
  3306  01139E  51EA               	movf	234,w,b	;volatile
  3307  0113A0  2419               	addwf	??_ADCC_GetConversionResult^(0+1280),w,c
  3308  0113A2  6E17               	movwf	?_ADCC_GetConversionResult^(0+1280),c
  3309  0113A4  0E00               	movlw	0
  3310  0113A6  201A               	addwfc	(??_ADCC_GetConversionResult+1)^(0+1280),w,c
  3311  0113A8  6E18               	movwf	(?_ADCC_GetConversionResult+1)^(0+1280),c
  3312  0113AA                     
  3313                           ; BSR set to: 3
  3314  0113AA  0012               	return		;funcret
  3315  0113AC                     __end_of_ADCC_GetConversionResult:
  3316                           	opt callstack 0
  3317                           
  3318 ;; *************** function _SYSTEM_Initialize *****************
  3319 ;; Defined at:
  3320 ;;		line 50 in file "mcc_generated_files/mcc.c"
  3321 ;; Parameters:    Size  Location     Type
  3322 ;;		None
  3323 ;; Auto vars:     Size  Location     Type
  3324 ;;		None
  3325 ;; Return value:  Size  Location     Type
  3326 ;;                  1    wreg      void 
  3327 ;; Registers used:
  3328 ;;		wreg, status,2, status,0, cstack
  3329 ;; Tracked objects:
  3330 ;;		On entry : 0/0
  3331 ;;		On exit  : 0/0
  3332 ;;		Unchanged: 0/0
  3333 ;; Data sizes:     COMRAM   BANK5   BANK6   BANK7   BANK8   BANK9  BANK10  BANK11  BANK12  BANK13  BANK14  BANK15  BANK1
      +6  BANK17  BANK18  BANK19  BANK20  BANK21  BANK22  BANK23  BANK24  BANK25  BANK26  BANK27  BANK28  BANK29  BANK30  BANK3
      +1  BANK32  BANK33  BANK34  BANK35  BANK36
  3334 ;;      Params:         0       0       0       0       0       0       0       0       0       0       0       0       
      +0       0       0       0       0       0       0       0       0       0       0       0       0       0       0       
      +0       0       0       0       0       0
  3335 ;;      Locals:         0       0       0       0       0       0       0       0       0       0       0       0       
      +0       0       0       0       0       0       0       0       0       0       0       0       0       0       0       
      +0       0       0       0       0       0
  3336 ;;      Temps:          0       0       0       0       0       0       0       0       0       0       0       0       
      +0       0       0       0       0       0       0       0       0       0       0       0       0       0       0       
      +0       0       0       0       0       0
  3337 ;;      Totals:         0       0       0       0       0       0       0       0       0       0       0       0       
      +0       0       0       0       0       0       0       0       0       0       0       0       0       0       0       
      +0       0       0       0       0       0
  3338 ;;Total ram usage:        0 bytes
  3339 ;; Hardware stack levels used:    1
  3340 ;; Hardware stack levels required when called:    6
  3341 ;; This function calls:
  3342 ;;		_ADCC_Initialize
  3343 ;;		_CMP1_Initialize
  3344 ;;		_CMP2_Initialize
  3345 ;;		_DAC1_Initialize
  3346 ;;		_FVR_Initialize
  3347 ;;		_INTERRUPT_Initialize
  3348 ;;		_NCO1_Initialize
  3349 ;;		_OSCILLATOR_Initialize
  3350 ;;		_PIN_MANAGER_Initialize
  3351 ;;		_PMD_Initialize
  3352 ;;		_TMR1_Initialize
  3353 ;; This function is called by:
  3354 ;;		_main
  3355 ;; This function uses a non-reentrant model
  3356 ;;
  3357                           
  3358                           	psect	text11
  3359  011284                     __ptext11:
  3360                           	opt callstack 0
  3361  011284                     _SYSTEM_Initialize:
  3362                           	opt callstack 121
  3363  011284                     
  3364                           ;mcc_generated_files/mcc.c: 52:     INTERRUPT_Initialize();
  3365  011284  EC0B  F08A         	call	_INTERRUPT_Initialize	;wreg free
  3366  011288                     
  3367                           ;mcc_generated_files/mcc.c: 53:     PMD_Initialize();
  3368  011288  EC83  F089         	call	_PMD_Initialize	;wreg free
  3369  01128C                     
  3370                           ;mcc_generated_files/mcc.c: 54:     PIN_MANAGER_Initialize();
  3371  01128C  EC75  F088         	call	_PIN_MANAGER_Initialize	;wreg free
  3372  011290                     
  3373                           ;mcc_generated_files/mcc.c: 55:     OSCILLATOR_Initialize();
  3374  011290  ECA6  F089         	call	_OSCILLATOR_Initialize	;wreg free
  3375  011294                     
  3376                           ;mcc_generated_files/mcc.c: 56:     CMP2_Initialize();
  3377  011294  ECE0  F089         	call	_CMP2_Initialize	;wreg free
  3378  011298                     
  3379                           ;mcc_generated_files/mcc.c: 57:     FVR_Initialize();
  3380  011298  EC07  F08A         	call	_FVR_Initialize	;wreg free
  3381  01129C                     
  3382                           ;mcc_generated_files/mcc.c: 58:     CMP1_Initialize();
  3383  01129C  ECEA  F089         	call	_CMP1_Initialize	;wreg free
  3384  0112A0                     
  3385                           ;mcc_generated_files/mcc.c: 59:     ADCC_Initialize();
  3386  0112A0  ECAB  F088         	call	_ADCC_Initialize	;wreg free
  3387  0112A4                     
  3388                           ;mcc_generated_files/mcc.c: 60:     NCO1_Initialize();
  3389  0112A4  EC70  F089         	call	_NCO1_Initialize	;wreg free
  3390  0112A8                     
  3391                           ;mcc_generated_files/mcc.c: 61:     DAC1_Initialize();
  3392  0112A8  ECFC  F089         	call	_DAC1_Initialize	;wreg free
  3393  0112AC                     
  3394                           ;mcc_generated_files/mcc.c: 62:     TMR1_Initialize();
  3395  0112AC  EC02  F089         	call	_TMR1_Initialize	;wreg free
  3396  0112B0  0012               	return		;funcret
  3397  0112B2                     __end_of_SYSTEM_Initialize:
  3398                           	opt callstack 0
  3399                           
  3400 ;; *************** function _TMR1_Initialize *****************
  3401 ;; Defined at:
  3402 ;;		line 64 in file "mcc_generated_files/tmr1.c"
  3403 ;; Parameters:    Size  Location     Type
  3404 ;;		None
  3405 ;; Auto vars:     Size  Location     Type
  3406 ;;		None
  3407 ;; Return value:  Size  Location     Type
  3408 ;;                  1    wreg      void 
  3409 ;; Registers used:
  3410 ;;		wreg, status,2, status,0, cstack
  3411 ;; Tracked objects:
  3412 ;;		On entry : 0/0
  3413 ;;		On exit  : 0/0
  3414 ;;		Unchanged: 0/0
  3415 ;; Data sizes:     COMRAM   BANK5   BANK6   BANK7   BANK8   BANK9  BANK10  BANK11  BANK12  BANK13  BANK14  BANK15  BANK1
      +6  BANK17  BANK18  BANK19  BANK20  BANK21  BANK22  BANK23  BANK24  BANK25  BANK26  BANK27  BANK28  BANK29  BANK30  BANK3
      +1  BANK32  BANK33  BANK34  BANK35  BANK36
  3416 ;;      Params:         0       0       0       0       0       0       0       0       0       0       0       0       
      +0       0       0       0       0       0       0       0       0       0       0       0       0       0       0       
      +0       0       0       0       0       0
  3417 ;;      Locals:         0       0       0       0       0       0       0       0       0       0       0       0       
      +0       0       0       0       0       0       0       0       0       0       0       0       0       0       0       
      +0       0       0       0       0       0
  3418 ;;      Temps:          2       0       0       0       0       0       0       0       0       0       0       0       
      +0       0       0       0       0       0       0       0       0       0       0       0       0       0       0       
      +0       0       0       0       0       0
  3419 ;;      Totals:         2       0       0       0       0       0       0       0       0       0       0       0       
      +0       0       0       0       0       0       0       0       0       0       0       0       0       0       0       
      +0       0       0       0       0       0
  3420 ;;Total ram usage:        2 bytes
  3421 ;; Hardware stack levels used:    1
  3422 ;; Hardware stack levels required when called:    5
  3423 ;; This function calls:
  3424 ;;		_TMR1_SetInterruptHandler
  3425 ;; This function is called by:
  3426 ;;		_SYSTEM_Initialize
  3427 ;; This function uses a non-reentrant model
  3428 ;;
  3429                           
  3430                           	psect	text12
  3431  011204                     __ptext12:
  3432                           	opt callstack 0
  3433  011204                     _TMR1_Initialize:
  3434                           	opt callstack 121
  3435  011204                     
  3436                           ;mcc_generated_files/tmr1.c: 69:     T1GCON = 0x00;
  3437  011204  0E00               	movlw	0
  3438  011206  0103               	movlb	3	; () banked
  3439  011208  6F1F               	movwf	31,b	;volatile
  3440                           
  3441                           ;mcc_generated_files/tmr1.c: 72:     T1GATE = 0x00;
  3442  01120A  0E00               	movlw	0
  3443  01120C  6F20               	movwf	32,b	;volatile
  3444                           
  3445                           ;mcc_generated_files/tmr1.c: 75:     T1CLK = 0x02;
  3446  01120E  0E02               	movlw	2
  3447  011210  6F21               	movwf	33,b	;volatile
  3448                           
  3449                           ;mcc_generated_files/tmr1.c: 78:     TMR1H = 0xF3;
  3450  011212  0EF3               	movlw	243
  3451  011214  6F1D               	movwf	29,b	;volatile
  3452                           
  3453                           ;mcc_generated_files/tmr1.c: 81:     TMR1L = 0x80;
  3454  011216  0E80               	movlw	128
  3455  011218  6F1C               	movwf	28,b	;volatile
  3456  01121A                     
  3457                           ; BSR set to: 3
  3458                           ;mcc_generated_files/tmr1.c: 84:     PIR3bits.TMR1IF = 0;
  3459  01121A  98B1               	bcf	177,4,c	;volatile
  3460  01121C                     
  3461                           ; BSR set to: 3
  3462                           ;mcc_generated_files/tmr1.c: 87:     timer1ReloadVal=(uint16_t)((TMR1H << 8) | TMR1L);
  3463  01121C  511C               	movf	28,w,b	;volatile
  3464  01121E  0060 FC74  F51A    	movff	797,??_TMR1_Initialize	;volatile
  3465  011224  6A1B               	clrf	(??_TMR1_Initialize+1)^(0+1280),c
  3466  011226  0061  F468  F51B   	movff	??_TMR1_Initialize,??_TMR1_Initialize+1
  3467  01122C  6A1A               	clrf	??_TMR1_Initialize^(0+1280),c
  3468  01122E  101A               	iorwf	??_TMR1_Initialize^(0+1280),w,c
  3469  011230  0105               	movlb	5	; () banked
  3470  011232  6FEF               	movwf	_timer1ReloadVal& (0+255),b	;volatile
  3471  011234  501B               	movf	(??_TMR1_Initialize+1)^(0+1280),w,c
  3472  011236  6FF0               	movwf	(_timer1ReloadVal+1)& (0+255),b	;volatile
  3473  011238                     
  3474                           ; BSR set to: 5
  3475                           ;mcc_generated_files/tmr1.c: 90:     PIE3bits.TMR1IE = 1;
  3476  011238  88A1               	bsf	161,4,c	;volatile
  3477  01123A                     
  3478                           ; BSR set to: 5
  3479                           ;mcc_generated_files/tmr1.c: 93:     TMR1_SetInterruptHandler(TMR1_DefaultInterruptHandl
      +                          er);
  3480  01123A  0E1A               	movlw	low _TMR1_DefaultInterruptHandler
  3481  01123C  6E17               	movwf	TMR1_SetInterruptHandler@InterruptHandler^(0+1280),c
  3482  01123E  0E14               	movlw	high _TMR1_DefaultInterruptHandler
  3483  011240  6E18               	movwf	(TMR1_SetInterruptHandler@InterruptHandler+1)^(0+1280),c
  3484  011242  0E01               	movlw	low (_TMR1_DefaultInterruptHandler shr (0+16))
  3485  011244  6E19               	movwf	(TMR1_SetInterruptHandler@InterruptHandler+2)^(0+1280),c
  3486  011246  ECD6  F089         	call	_TMR1_SetInterruptHandler	;wreg free
  3487  01124A                     
  3488                           ;mcc_generated_files/tmr1.c: 96:     T1CON = 0x01;
  3489  01124A  0E01               	movlw	1
  3490  01124C  0103               	movlb	3	; () banked
  3491  01124E  6F1E               	movwf	30,b	;volatile
  3492  011250                     
  3493                           ; BSR set to: 3
  3494  011250  0012               	return		;funcret
  3495  011252                     __end_of_TMR1_Initialize:
  3496                           	opt callstack 0
  3497                           
  3498 ;; *************** function _TMR1_SetInterruptHandler *****************
  3499 ;; Defined at:
  3500 ;;		line 185 in file "mcc_generated_files/tmr1.c"
  3501 ;; Parameters:    Size  Location     Type
  3502 ;;  InterruptHan    3   22[COMRAM] PTR FTN()void 
  3503 ;;		 -> doAudio(1), TMR1_DefaultInterruptHandler(1), 
  3504 ;; Auto vars:     Size  Location     Type
  3505 ;;		None
  3506 ;; Return value:  Size  Location     Type
  3507 ;;                  1    wreg      void 
  3508 ;; Registers used:
  3509 ;;		wreg, status,2, status,0
  3510 ;; Tracked objects:
  3511 ;;		On entry : 0/0
  3512 ;;		On exit  : 0/0
  3513 ;;		Unchanged: 0/0
  3514 ;; Data sizes:     COMRAM   BANK5   BANK6   BANK7   BANK8   BANK9  BANK10  BANK11  BANK12  BANK13  BANK14  BANK15  BANK1
      +6  BANK17  BANK18  BANK19  BANK20  BANK21  BANK22  BANK23  BANK24  BANK25  BANK26  BANK27  BANK28  BANK29  BANK30  BANK3
      +1  BANK32  BANK33  BANK34  BANK35  BANK36
  3515 ;;      Params:         3       0       0       0       0       0       0       0       0       0       0       0       
      +0       0       0       0       0       0       0       0       0       0       0       0       0       0       0       
      +0       0       0       0       0       0
  3516 ;;      Locals:         0       0       0       0       0       0       0       0       0       0       0       0       
      +0       0       0       0       0       0       0       0       0       0       0       0       0       0       0       
      +0       0       0       0       0       0
  3517 ;;      Temps:          0       0       0       0       0       0       0       0       0       0       0       0       
      +0       0       0       0       0       0       0       0       0       0       0       0       0       0       0       
      +0       0       0       0       0       0
  3518 ;;      Totals:         3       0       0       0       0       0       0       0       0       0       0       0       
      +0       0       0       0       0       0       0       0       0       0       0       0       0       0       0       
      +0       0       0       0       0       0
  3519 ;;Total ram usage:        3 bytes
  3520 ;; Hardware stack levels used:    1
  3521 ;; Hardware stack levels required when called:    4
  3522 ;; This function calls:
  3523 ;;		Nothing
  3524 ;; This function is called by:
  3525 ;;		_TMR1_Initialize
  3526 ;;		_main
  3527 ;; This function uses a non-reentrant model
  3528 ;;
  3529                           
  3530                           	psect	text13
  3531  0113AC                     __ptext13:
  3532                           	opt callstack 0
  3533  0113AC                     _TMR1_SetInterruptHandler:
  3534                           	opt callstack 123
  3535  0113AC                     
  3536                           ;mcc_generated_files/tmr1.c: 186:     TMR1_InterruptHandler = InterruptHandler;
  3537  0113AC  0061  F45C  F5EA   	movff	TMR1_SetInterruptHandler@InterruptHandler,_TMR1_InterruptHandler
  3538  0113B2  0061  F460  F5EB   	movff	TMR1_SetInterruptHandler@InterruptHandler+1,_TMR1_InterruptHandler+1
  3539  0113B8  0061  F464  F5EC   	movff	TMR1_SetInterruptHandler@InterruptHandler+2,_TMR1_InterruptHandler+2
  3540  0113BE  0012               	return		;funcret
  3541  0113C0                     __end_of_TMR1_SetInterruptHandler:
  3542                           	opt callstack 0
  3543                           
  3544 ;; *************** function _PMD_Initialize *****************
  3545 ;; Defined at:
  3546 ;;		line 81 in file "mcc_generated_files/mcc.c"
  3547 ;; Parameters:    Size  Location     Type
  3548 ;;		None
  3549 ;; Auto vars:     Size  Location     Type
  3550 ;;		None
  3551 ;; Return value:  Size  Location     Type
  3552 ;;                  1    wreg      void 
  3553 ;; Registers used:
  3554 ;;		wreg, status,2
  3555 ;; Tracked objects:
  3556 ;;		On entry : 0/0
  3557 ;;		On exit  : 0/0
  3558 ;;		Unchanged: 0/0
  3559 ;; Data sizes:     COMRAM   BANK5   BANK6   BANK7   BANK8   BANK9  BANK10  BANK11  BANK12  BANK13  BANK14  BANK15  BANK1
      +6  BANK17  BANK18  BANK19  BANK20  BANK21  BANK22  BANK23  BANK24  BANK25  BANK26  BANK27  BANK28  BANK29  BANK30  BANK3
      +1  BANK32  BANK33  BANK34  BANK35  BANK36
  3560 ;;      Params:         0       0       0       0       0       0       0       0       0       0       0       0       
      +0       0       0       0       0       0       0       0       0       0       0       0       0       0       0       
      +0       0       0       0       0       0
  3561 ;;      Locals:         0       0       0       0       0       0       0       0       0       0       0       0       
      +0       0       0       0       0       0       0       0       0       0       0       0       0       0       0       
      +0       0       0       0       0       0
  3562 ;;      Temps:          0       0       0       0       0       0       0       0       0       0       0       0       
      +0       0       0       0       0       0       0       0       0       0       0       0       0       0       0       
      +0       0       0       0       0       0
  3563 ;;      Totals:         0       0       0       0       0       0       0       0       0       0       0       0       
      +0       0       0       0       0       0       0       0       0       0       0       0       0       0       0       
      +0       0       0       0       0       0
  3564 ;;Total ram usage:        0 bytes
  3565 ;; Hardware stack levels used:    1
  3566 ;; Hardware stack levels required when called:    4
  3567 ;; This function calls:
  3568 ;;		Nothing
  3569 ;; This function is called by:
  3570 ;;		_SYSTEM_Initialize
  3571 ;; This function uses a non-reentrant model
  3572 ;;
  3573                           
  3574                           	psect	text14
  3575  011306                     __ptext14:
  3576                           	opt callstack 0
  3577  011306                     _PMD_Initialize:
  3578                           	opt callstack 122
  3579  011306                     
  3580                           ;mcc_generated_files/mcc.c: 84:     PMD0 = 0x00;
  3581  011306  0E00               	movlw	0
  3582  011308  0100               	movlb	0	; () banked
  3583  01130A  6F60               	movwf	96,b	;volatile
  3584                           
  3585                           ;mcc_generated_files/mcc.c: 86:     PMD1 = 0x00;
  3586  01130C  0E00               	movlw	0
  3587  01130E  6F61               	movwf	97,b	;volatile
  3588                           
  3589                           ;mcc_generated_files/mcc.c: 88:     PMD3 = 0x00;
  3590  011310  0E00               	movlw	0
  3591  011312  6F63               	movwf	99,b	;volatile
  3592                           
  3593                           ;mcc_generated_files/mcc.c: 90:     PMD4 = 0x00;
  3594  011314  0E00               	movlw	0
  3595  011316  6F64               	movwf	100,b	;volatile
  3596                           
  3597                           ;mcc_generated_files/mcc.c: 92:     PMD5 = 0x00;
  3598  011318  0E00               	movlw	0
  3599  01131A  6F65               	movwf	101,b	;volatile
  3600                           
  3601                           ;mcc_generated_files/mcc.c: 94:     PMD6 = 0x00;
  3602  01131C  0E00               	movlw	0
  3603  01131E  6F66               	movwf	102,b	;volatile
  3604                           
  3605                           ;mcc_generated_files/mcc.c: 96:     PMD7 = 0x00;
  3606  011320  0E00               	movlw	0
  3607  011322  6F67               	movwf	103,b	;volatile
  3608                           
  3609                           ;mcc_generated_files/mcc.c: 98:     PMD8 = 0x00;
  3610  011324  0E00               	movlw	0
  3611  011326  6F68               	movwf	104,b	;volatile
  3612  011328                     
  3613                           ; BSR set to: 0
  3614  011328  0012               	return		;funcret
  3615  01132A                     __end_of_PMD_Initialize:
  3616                           	opt callstack 0
  3617                           
  3618 ;; *************** function _PIN_MANAGER_Initialize *****************
  3619 ;; Defined at:
  3620 ;;		line 55 in file "mcc_generated_files/pin_manager.c"
  3621 ;; Parameters:    Size  Location     Type
  3622 ;;		None
  3623 ;; Auto vars:     Size  Location     Type
  3624 ;;		None
  3625 ;; Return value:  Size  Location     Type
  3626 ;;                  1    wreg      void 
  3627 ;; Registers used:
  3628 ;;		wreg, status,2
  3629 ;; Tracked objects:
  3630 ;;		On entry : 0/0
  3631 ;;		On exit  : 0/0
  3632 ;;		Unchanged: 0/0
  3633 ;; Data sizes:     COMRAM   BANK5   BANK6   BANK7   BANK8   BANK9  BANK10  BANK11  BANK12  BANK13  BANK14  BANK15  BANK1
      +6  BANK17  BANK18  BANK19  BANK20  BANK21  BANK22  BANK23  BANK24  BANK25  BANK26  BANK27  BANK28  BANK29  BANK30  BANK3
      +1  BANK32  BANK33  BANK34  BANK35  BANK36
  3634 ;;      Params:         0       0       0       0       0       0       0       0       0       0       0       0       
      +0       0       0       0       0       0       0       0       0       0       0       0       0       0       0       
      +0       0       0       0       0       0
  3635 ;;      Locals:         0       0       0       0       0       0       0       0       0       0       0       0       
      +0       0       0       0       0       0       0       0       0       0       0       0       0       0       0       
      +0       0       0       0       0       0
  3636 ;;      Temps:          0       0       0       0       0       0       0       0       0       0       0       0       
      +0       0       0       0       0       0       0       0       0       0       0       0       0       0       0       
      +0       0       0       0       0       0
  3637 ;;      Totals:         0       0       0       0       0       0       0       0       0       0       0       0       
      +0       0       0       0       0       0       0       0       0       0       0       0       0       0       0       
      +0       0       0       0       0       0
  3638 ;;Total ram usage:        0 bytes
  3639 ;; Hardware stack levels used:    1
  3640 ;; Hardware stack levels required when called:    4
  3641 ;; This function calls:
  3642 ;;		Nothing
  3643 ;; This function is called by:
  3644 ;;		_SYSTEM_Initialize
  3645 ;; This function uses a non-reentrant model
  3646 ;;
  3647                           
  3648                           	psect	text15
  3649  0110EA                     __ptext15:
  3650                           	opt callstack 0
  3651  0110EA                     _PIN_MANAGER_Initialize:
  3652                           	opt callstack 122
  3653  0110EA                     
  3654                           ;mcc_generated_files/pin_manager.c: 60:     LATA = 0x00;
  3655  0110EA  0E00               	movlw	0
  3656  0110EC  6EBE               	movwf	190,c	;volatile
  3657                           
  3658                           ;mcc_generated_files/pin_manager.c: 61:     LATB = 0x00;
  3659  0110EE  0E00               	movlw	0
  3660  0110F0  6EBF               	movwf	191,c	;volatile
  3661                           
  3662                           ;mcc_generated_files/pin_manager.c: 62:     LATC = 0x00;
  3663  0110F2  0E00               	movlw	0
  3664  0110F4  6EC0               	movwf	192,c	;volatile
  3665                           
  3666                           ;mcc_generated_files/pin_manager.c: 67:     TRISA = 0x0B;
  3667  0110F6  0E0B               	movlw	11
  3668  0110F8  6EC6               	movwf	198,c	;volatile
  3669                           
  3670                           ;mcc_generated_files/pin_manager.c: 68:     TRISB = 0xC0;
  3671  0110FA  0EC0               	movlw	192
  3672  0110FC  6EC7               	movwf	199,c	;volatile
  3673                           
  3674                           ;mcc_generated_files/pin_manager.c: 69:     TRISC = 0x00;
  3675  0110FE  0E00               	movlw	0
  3676  011100  6EC8               	movwf	200,c	;volatile
  3677  011102                     
  3678                           ;mcc_generated_files/pin_manager.c: 74:     ANSELC = 0xFF;
  3679  011102  0104               	movlb	4	; () banked
  3680  011104  6910               	setf	16,b	;volatile
  3681  011106                     
  3682                           ; BSR set to: 4
  3683                           ;mcc_generated_files/pin_manager.c: 75:     ANSELB = 0xFF;
  3684  011106  6908               	setf	8,b	;volatile
  3685  011108                     
  3686                           ; BSR set to: 4
  3687                           ;mcc_generated_files/pin_manager.c: 76:     ANSELA = 0xFF;
  3688  011108  6900               	setf	0,b	;volatile
  3689                           
  3690                           ;mcc_generated_files/pin_manager.c: 81:     WPUE = 0x00;
  3691  01110A  0E00               	movlw	0
  3692  01110C  6F21               	movwf	33,b	;volatile
  3693                           
  3694                           ;mcc_generated_files/pin_manager.c: 82:     WPUB = 0x00;
  3695  01110E  0E00               	movlw	0
  3696  011110  6F09               	movwf	9,b	;volatile
  3697                           
  3698                           ;mcc_generated_files/pin_manager.c: 83:     WPUA = 0x00;
  3699  011112  0E00               	movlw	0
  3700  011114  6F01               	movwf	1,b	;volatile
  3701                           
  3702                           ;mcc_generated_files/pin_manager.c: 84:     WPUC = 0x00;
  3703  011116  0E00               	movlw	0
  3704  011118  6F11               	movwf	17,b	;volatile
  3705                           
  3706                           ;mcc_generated_files/pin_manager.c: 89:     RB1I2C = 0x00;
  3707  01111A  0E00               	movlw	0
  3708  01111C  0102               	movlb	2	; () banked
  3709  01111E  6F89               	movwf	137,b	;volatile
  3710                           
  3711                           ;mcc_generated_files/pin_manager.c: 90:     RB2I2C = 0x00;
  3712  011120  0E00               	movlw	0
  3713  011122  6F88               	movwf	136,b	;volatile
  3714                           
  3715                           ;mcc_generated_files/pin_manager.c: 91:     RC3I2C = 0x00;
  3716  011124  0E00               	movlw	0
  3717  011126  6F87               	movwf	135,b	;volatile
  3718                           
  3719                           ;mcc_generated_files/pin_manager.c: 92:     RC4I2C = 0x00;
  3720  011128  0E00               	movlw	0
  3721  01112A  6F86               	movwf	134,b	;volatile
  3722                           
  3723                           ;mcc_generated_files/pin_manager.c: 97:     ODCONE = 0x00;
  3724  01112C  0E00               	movlw	0
  3725  01112E  0104               	movlb	4	; () banked
  3726  011130  6F22               	movwf	34,b	;volatile
  3727                           
  3728                           ;mcc_generated_files/pin_manager.c: 98:     ODCONA = 0x00;
  3729  011132  0E00               	movlw	0
  3730  011134  6F02               	movwf	2,b	;volatile
  3731                           
  3732                           ;mcc_generated_files/pin_manager.c: 99:     ODCONB = 0x00;
  3733  011136  0E00               	movlw	0
  3734  011138  6F0A               	movwf	10,b	;volatile
  3735                           
  3736                           ;mcc_generated_files/pin_manager.c: 100:     ODCONC = 0x00;
  3737  01113A  0E00               	movlw	0
  3738  01113C  6F12               	movwf	18,b	;volatile
  3739  01113E                     
  3740                           ; BSR set to: 4
  3741                           ;mcc_generated_files/pin_manager.c: 105:     SLRCONA = 0xFF;
  3742  01113E  6903               	setf	3,b	;volatile
  3743  011140                     
  3744                           ; BSR set to: 4
  3745                           ;mcc_generated_files/pin_manager.c: 106:     SLRCONB = 0xFF;
  3746  011140  690B               	setf	11,b	;volatile
  3747  011142                     
  3748                           ; BSR set to: 4
  3749                           ;mcc_generated_files/pin_manager.c: 107:     SLRCONC = 0xFF;
  3750  011142  6913               	setf	19,b	;volatile
  3751  011144                     
  3752                           ; BSR set to: 4
  3753                           ;mcc_generated_files/pin_manager.c: 112:     INLVLA = 0xFF;
  3754  011144  6904               	setf	4,b	;volatile
  3755  011146                     
  3756                           ; BSR set to: 4
  3757                           ;mcc_generated_files/pin_manager.c: 113:     INLVLB = 0xFF;
  3758  011146  690C               	setf	12,b	;volatile
  3759  011148                     
  3760                           ; BSR set to: 4
  3761                           ;mcc_generated_files/pin_manager.c: 114:     INLVLC = 0xFF;
  3762  011148  6914               	setf	20,b	;volatile
  3763                           
  3764                           ;mcc_generated_files/pin_manager.c: 115:     INLVLE = 0x08;
  3765  01114A  0E08               	movlw	8
  3766  01114C  6F24               	movwf	36,b	;volatile
  3767                           
  3768                           ;mcc_generated_files/pin_manager.c: 124:     RA4PPS = 0x3F;
  3769  01114E  0E3F               	movlw	63
  3770  011150  0102               	movlb	2	; () banked
  3771  011152  6F05               	movwf	5,b	;volatile
  3772  011154                     
  3773                           ; BSR set to: 2
  3774  011154  0012               	return		;funcret
  3775  011156                     __end_of_PIN_MANAGER_Initialize:
  3776                           	opt callstack 0
  3777                           
  3778 ;; *************** function _OSCILLATOR_Initialize *****************
  3779 ;; Defined at:
  3780 ;;		line 65 in file "mcc_generated_files/mcc.c"
  3781 ;; Parameters:    Size  Location     Type
  3782 ;;		None
  3783 ;; Auto vars:     Size  Location     Type
  3784 ;;		None
  3785 ;; Return value:  Size  Location     Type
  3786 ;;                  1    wreg      void 
  3787 ;; Registers used:
  3788 ;;		wreg, status,2
  3789 ;; Tracked objects:
  3790 ;;		On entry : 0/0
  3791 ;;		On exit  : 0/0
  3792 ;;		Unchanged: 0/0
  3793 ;; Data sizes:     COMRAM   BANK5   BANK6   BANK7   BANK8   BANK9  BANK10  BANK11  BANK12  BANK13  BANK14  BANK15  BANK1
      +6  BANK17  BANK18  BANK19  BANK20  BANK21  BANK22  BANK23  BANK24  BANK25  BANK26  BANK27  BANK28  BANK29  BANK30  BANK3
      +1  BANK32  BANK33  BANK34  BANK35  BANK36
  3794 ;;      Params:         0       0       0       0       0       0       0       0       0       0       0       0       
      +0       0       0       0       0       0       0       0       0       0       0       0       0       0       0       
      +0       0       0       0       0       0
  3795 ;;      Locals:         0       0       0       0       0       0       0       0       0       0       0       0       
      +0       0       0       0       0       0       0       0       0       0       0       0       0       0       0       
      +0       0       0       0       0       0
  3796 ;;      Temps:          0       0       0       0       0       0       0       0       0       0       0       0       
      +0       0       0       0       0       0       0       0       0       0       0       0       0       0       0       
      +0       0       0       0       0       0
  3797 ;;      Totals:         0       0       0       0       0       0       0       0       0       0       0       0       
      +0       0       0       0       0       0       0       0       0       0       0       0       0       0       0       
      +0       0       0       0       0       0
  3798 ;;Total ram usage:        0 bytes
  3799 ;; Hardware stack levels used:    1
  3800 ;; Hardware stack levels required when called:    4
  3801 ;; This function calls:
  3802 ;;		Nothing
  3803 ;; This function is called by:
  3804 ;;		_SYSTEM_Initialize
  3805 ;; This function uses a non-reentrant model
  3806 ;;
  3807                           
  3808                           	psect	text16
  3809  01134C                     __ptext16:
  3810                           	opt callstack 0
  3811  01134C                     _OSCILLATOR_Initialize:
  3812                           	opt callstack 122
  3813  01134C                     
  3814                           ;mcc_generated_files/mcc.c: 68:     OSCCON1 = 0x60;
  3815  01134C  0E60               	movlw	96
  3816  01134E  0100               	movlb	0	; () banked
  3817  011350  6FAD               	movwf	173,b	;volatile
  3818                           
  3819                           ;mcc_generated_files/mcc.c: 70:     OSCCON3 = 0x00;
  3820  011352  0E00               	movlw	0
  3821  011354  6FAF               	movwf	175,b	;volatile
  3822                           
  3823                           ;mcc_generated_files/mcc.c: 72:     OSCEN = 0x00;
  3824  011356  0E00               	movlw	0
  3825  011358  6FB3               	movwf	179,b	;volatile
  3826                           
  3827                           ;mcc_generated_files/mcc.c: 74:     OSCFRQ = 0x08;
  3828  01135A  0E08               	movlw	8
  3829  01135C  6FB1               	movwf	177,b	;volatile
  3830                           
  3831                           ;mcc_generated_files/mcc.c: 76:     OSCTUNE = 0x00;
  3832  01135E  0E00               	movlw	0
  3833  011360  6FB0               	movwf	176,b	;volatile
  3834                           
  3835                           ;mcc_generated_files/mcc.c: 78:     ACTCON = 0x00;
  3836  011362  0E00               	movlw	0
  3837  011364  6FAC               	movwf	172,b	;volatile
  3838  011366                     
  3839                           ; BSR set to: 0
  3840  011366  0012               	return		;funcret
  3841  011368                     __end_of_OSCILLATOR_Initialize:
  3842                           	opt callstack 0
  3843                           
  3844 ;; *************** function _NCO1_Initialize *****************
  3845 ;; Defined at:
  3846 ;;		line 58 in file "mcc_generated_files/nco1.c"
  3847 ;; Parameters:    Size  Location     Type
  3848 ;;		None
  3849 ;; Auto vars:     Size  Location     Type
  3850 ;;		None
  3851 ;; Return value:  Size  Location     Type
  3852 ;;                  1    wreg      void 
  3853 ;; Registers used:
  3854 ;;		wreg, status,2
  3855 ;; Tracked objects:
  3856 ;;		On entry : 0/0
  3857 ;;		On exit  : 0/0
  3858 ;;		Unchanged: 0/0
  3859 ;; Data sizes:     COMRAM   BANK5   BANK6   BANK7   BANK8   BANK9  BANK10  BANK11  BANK12  BANK13  BANK14  BANK15  BANK1
      +6  BANK17  BANK18  BANK19  BANK20  BANK21  BANK22  BANK23  BANK24  BANK25  BANK26  BANK27  BANK28  BANK29  BANK30  BANK3
      +1  BANK32  BANK33  BANK34  BANK35  BANK36
  3860 ;;      Params:         0       0       0       0       0       0       0       0       0       0       0       0       
      +0       0       0       0       0       0       0       0       0       0       0       0       0       0       0       
      +0       0       0       0       0       0
  3861 ;;      Locals:         0       0       0       0       0       0       0       0       0       0       0       0       
      +0       0       0       0       0       0       0       0       0       0       0       0       0       0       0       
      +0       0       0       0       0       0
  3862 ;;      Temps:          0       0       0       0       0       0       0       0       0       0       0       0       
      +0       0       0       0       0       0       0       0       0       0       0       0       0       0       0       
      +0       0       0       0       0       0
  3863 ;;      Totals:         0       0       0       0       0       0       0       0       0       0       0       0       
      +0       0       0       0       0       0       0       0       0       0       0       0       0       0       0       
      +0       0       0       0       0       0
  3864 ;;Total ram usage:        0 bytes
  3865 ;; Hardware stack levels used:    1
  3866 ;; Hardware stack levels required when called:    4
  3867 ;; This function calls:
  3868 ;;		Nothing
  3869 ;; This function is called by:
  3870 ;;		_SYSTEM_Initialize
  3871 ;; This function uses a non-reentrant model
  3872 ;;
  3873                           
  3874                           	psect	text17
  3875  0112E0                     __ptext17:
  3876                           	opt callstack 0
  3877  0112E0                     _NCO1_Initialize:
  3878                           	opt callstack 122
  3879  0112E0                     
  3880                           ;mcc_generated_files/nco1.c: 62:     NCO1CON = 0x00;
  3881  0112E0  0E00               	movlw	0
  3882  0112E2  0104               	movlb	4	; () banked
  3883  0112E4  6F46               	movwf	70,b	;volatile
  3884                           
  3885                           ;mcc_generated_files/nco1.c: 64:     NCO1CLK = 0x02;
  3886  0112E6  0E02               	movlw	2
  3887  0112E8  6F47               	movwf	71,b	;volatile
  3888                           
  3889                           ;mcc_generated_files/nco1.c: 66:     NCO1ACCU = 0x00;
  3890  0112EA  0E00               	movlw	0
  3891  0112EC  6F42               	movwf	66,b	;volatile
  3892                           
  3893                           ;mcc_generated_files/nco1.c: 68:     NCO1ACCH = 0x00;
  3894  0112EE  0E00               	movlw	0
  3895  0112F0  6F41               	movwf	65,b	;volatile
  3896                           
  3897                           ;mcc_generated_files/nco1.c: 70:     NCO1ACCL = 0x00;
  3898  0112F2  0E00               	movlw	0
  3899  0112F4  6F40               	movwf	64,b	;volatile
  3900                           
  3901                           ;mcc_generated_files/nco1.c: 72:     NCO1INCU = 0x00;
  3902  0112F6  0E00               	movlw	0
  3903  0112F8  6F45               	movwf	69,b	;volatile
  3904                           
  3905                           ;mcc_generated_files/nco1.c: 74:     NCO1INCH = 0x00;
  3906  0112FA  0E00               	movlw	0
  3907  0112FC  6F44               	movwf	68,b	;volatile
  3908                           
  3909                           ;mcc_generated_files/nco1.c: 76:     NCO1INCL = 0x44;
  3910  0112FE  0E44               	movlw	68
  3911  011300  6F43               	movwf	67,b	;volatile
  3912  011302                     
  3913                           ; BSR set to: 4
  3914                           ;mcc_generated_files/nco1.c: 79:     NCO1CONbits.EN = 1;
  3915  011302  8F46               	bsf	70,7,b	;volatile
  3916  011304                     
  3917                           ; BSR set to: 4
  3918  011304  0012               	return		;funcret
  3919  011306                     __end_of_NCO1_Initialize:
  3920                           	opt callstack 0
  3921                           
  3922 ;; *************** function _INTERRUPT_Initialize *****************
  3923 ;; Defined at:
  3924 ;;		line 52 in file "mcc_generated_files/interrupt_manager.c"
  3925 ;; Parameters:    Size  Location     Type
  3926 ;;		None
  3927 ;; Auto vars:     Size  Location     Type
  3928 ;;		None
  3929 ;; Return value:  Size  Location     Type
  3930 ;;                  1    wreg      void 
  3931 ;; Registers used:
  3932 ;;		None
  3933 ;; Tracked objects:
  3934 ;;		On entry : 0/0
  3935 ;;		On exit  : 0/0
  3936 ;;		Unchanged: 0/0
  3937 ;; Data sizes:     COMRAM   BANK5   BANK6   BANK7   BANK8   BANK9  BANK10  BANK11  BANK12  BANK13  BANK14  BANK15  BANK1
      +6  BANK17  BANK18  BANK19  BANK20  BANK21  BANK22  BANK23  BANK24  BANK25  BANK26  BANK27  BANK28  BANK29  BANK30  BANK3
      +1  BANK32  BANK33  BANK34  BANK35  BANK36
  3938 ;;      Params:         0       0       0       0       0       0       0       0       0       0       0       0       
      +0       0       0       0       0       0       0       0       0       0       0       0       0       0       0       
      +0       0       0       0       0       0
  3939 ;;      Locals:         0       0       0       0       0       0       0       0       0       0       0       0       
      +0       0       0       0       0       0       0       0       0       0       0       0       0       0       0       
      +0       0       0       0       0       0
  3940 ;;      Temps:          0       0       0       0       0       0       0       0       0       0       0       0       
      +0       0       0       0       0       0       0       0       0       0       0       0       0       0       0       
      +0       0       0       0       0       0
  3941 ;;      Totals:         0       0       0       0       0       0       0       0       0       0       0       0       
      +0       0       0       0       0       0       0       0       0       0       0       0       0       0       0       
      +0       0       0       0       0       0
  3942 ;;Total ram usage:        0 bytes
  3943 ;; Hardware stack levels used:    1
  3944 ;; Hardware stack levels required when called:    4
  3945 ;; This function calls:
  3946 ;;		Nothing
  3947 ;; This function is called by:
  3948 ;;		_SYSTEM_Initialize
  3949 ;; This function uses a non-reentrant model
  3950 ;;
  3951                           
  3952                           	psect	text18
  3953  011416                     __ptext18:
  3954                           	opt callstack 0
  3955  011416                     _INTERRUPT_Initialize:
  3956                           	opt callstack 122
  3957  011416                     
  3958                           ;mcc_generated_files/interrupt_manager.c: 55:     INTCON0bits.IPEN = 0;
  3959  011416  9AD6               	bcf	214,5,c	;volatile
  3960  011418  0012               	return		;funcret
  3961  01141A                     __end_of_INTERRUPT_Initialize:
  3962                           	opt callstack 0
  3963                           
  3964 ;; *************** function _FVR_Initialize *****************
  3965 ;; Defined at:
  3966 ;;		line 58 in file "mcc_generated_files/fvr.c"
  3967 ;; Parameters:    Size  Location     Type
  3968 ;;		None
  3969 ;; Auto vars:     Size  Location     Type
  3970 ;;		None
  3971 ;; Return value:  Size  Location     Type
  3972 ;;                  1    wreg      void 
  3973 ;; Registers used:
  3974 ;;		wreg, status,2
  3975 ;; Tracked objects:
  3976 ;;		On entry : 0/0
  3977 ;;		On exit  : 0/0
  3978 ;;		Unchanged: 0/0
  3979 ;; Data sizes:     COMRAM   BANK5   BANK6   BANK7   BANK8   BANK9  BANK10  BANK11  BANK12  BANK13  BANK14  BANK15  BANK1
      +6  BANK17  BANK18  BANK19  BANK20  BANK21  BANK22  BANK23  BANK24  BANK25  BANK26  BANK27  BANK28  BANK29  BANK30  BANK3
      +1  BANK32  BANK33  BANK34  BANK35  BANK36
  3980 ;;      Params:         0       0       0       0       0       0       0       0       0       0       0       0       
      +0       0       0       0       0       0       0       0       0       0       0       0       0       0       0       
      +0       0       0       0       0       0
  3981 ;;      Locals:         0       0       0       0       0       0       0       0       0       0       0       0       
      +0       0       0       0       0       0       0       0       0       0       0       0       0       0       0       
      +0       0       0       0       0       0
  3982 ;;      Temps:          0       0       0       0       0       0       0       0       0       0       0       0       
      +0       0       0       0       0       0       0       0       0       0       0       0       0       0       0       
      +0       0       0       0       0       0
  3983 ;;      Totals:         0       0       0       0       0       0       0       0       0       0       0       0       
      +0       0       0       0       0       0       0       0       0       0       0       0       0       0       0       
      +0       0       0       0       0       0
  3984 ;;Total ram usage:        0 bytes
  3985 ;; Hardware stack levels used:    1
  3986 ;; Hardware stack levels required when called:    4
  3987 ;; This function calls:
  3988 ;;		Nothing
  3989 ;; This function is called by:
  3990 ;;		_SYSTEM_Initialize
  3991 ;; This function uses a non-reentrant model
  3992 ;;
  3993                           
  3994                           	psect	text19
  3995  01140E                     __ptext19:
  3996                           	opt callstack 0
  3997  01140E                     _FVR_Initialize:
  3998                           	opt callstack 122
  3999  01140E                     
  4000                           ;mcc_generated_files/fvr.c: 61:     FVRCON = 0x88;
  4001  01140E  0E88               	movlw	136
  4002  011410  0103               	movlb	3	; () banked
  4003  011412  6FD7               	movwf	215,b	;volatile
  4004  011414                     
  4005                           ; BSR set to: 3
  4006  011414  0012               	return		;funcret
  4007  011416                     __end_of_FVR_Initialize:
  4008                           	opt callstack 0
  4009                           
  4010 ;; *************** function _DAC1_Initialize *****************
  4011 ;; Defined at:
  4012 ;;		line 58 in file "mcc_generated_files/dac1.c"
  4013 ;; Parameters:    Size  Location     Type
  4014 ;;		None
  4015 ;; Auto vars:     Size  Location     Type
  4016 ;;		None
  4017 ;; Return value:  Size  Location     Type
  4018 ;;                  1    wreg      void 
  4019 ;; Registers used:
  4020 ;;		wreg, status,2
  4021 ;; Tracked objects:
  4022 ;;		On entry : 0/0
  4023 ;;		On exit  : 0/0
  4024 ;;		Unchanged: 0/0
  4025 ;; Data sizes:     COMRAM   BANK5   BANK6   BANK7   BANK8   BANK9  BANK10  BANK11  BANK12  BANK13  BANK14  BANK15  BANK1
      +6  BANK17  BANK18  BANK19  BANK20  BANK21  BANK22  BANK23  BANK24  BANK25  BANK26  BANK27  BANK28  BANK29  BANK30  BANK3
      +1  BANK32  BANK33  BANK34  BANK35  BANK36
  4026 ;;      Params:         0       0       0       0       0       0       0       0       0       0       0       0       
      +0       0       0       0       0       0       0       0       0       0       0       0       0       0       0       
      +0       0       0       0       0       0
  4027 ;;      Locals:         0       0       0       0       0       0       0       0       0       0       0       0       
      +0       0       0       0       0       0       0       0       0       0       0       0       0       0       0       
      +0       0       0       0       0       0
  4028 ;;      Temps:          0       0       0       0       0       0       0       0       0       0       0       0       
      +0       0       0       0       0       0       0       0       0       0       0       0       0       0       0       
      +0       0       0       0       0       0
  4029 ;;      Totals:         0       0       0       0       0       0       0       0       0       0       0       0       
      +0       0       0       0       0       0       0       0       0       0       0       0       0       0       0       
      +0       0       0       0       0       0
  4030 ;;Total ram usage:        0 bytes
  4031 ;; Hardware stack levels used:    1
  4032 ;; Hardware stack levels required when called:    4
  4033 ;; This function calls:
  4034 ;;		Nothing
  4035 ;; This function is called by:
  4036 ;;		_SYSTEM_Initialize
  4037 ;; This function uses a non-reentrant model
  4038 ;;
  4039                           
  4040                           	psect	text20
  4041  0113F8                     __ptext20:
  4042                           	opt callstack 0
  4043  0113F8                     _DAC1_Initialize:
  4044                           	opt callstack 122
  4045  0113F8                     
  4046                           ;mcc_generated_files/dac1.c: 61:     DAC1CON = 0xA8;
  4047  0113F8  0EA8               	movlw	168
  4048  0113FA  0100               	movlb	0	; () banked
  4049  0113FC  6F7F               	movwf	127,b	;volatile
  4050                           
  4051                           ;mcc_generated_files/dac1.c: 63:     DAC1DATL = 0x00;
  4052  0113FE  0E00               	movlw	0
  4053  011400  6F7D               	movwf	125,b	;volatile
  4054  011402                     
  4055                           ; BSR set to: 0
  4056  011402  0012               	return		;funcret
  4057  011404                     __end_of_DAC1_Initialize:
  4058                           	opt callstack 0
  4059                           
  4060 ;; *************** function _CMP2_Initialize *****************
  4061 ;; Defined at:
  4062 ;;		line 58 in file "mcc_generated_files/cmp2.c"
  4063 ;; Parameters:    Size  Location     Type
  4064 ;;		None
  4065 ;; Auto vars:     Size  Location     Type
  4066 ;;		None
  4067 ;; Return value:  Size  Location     Type
  4068 ;;                  1    wreg      void 
  4069 ;; Registers used:
  4070 ;;		wreg, status,2
  4071 ;; Tracked objects:
  4072 ;;		On entry : 0/0
  4073 ;;		On exit  : 0/0
  4074 ;;		Unchanged: 0/0
  4075 ;; Data sizes:     COMRAM   BANK5   BANK6   BANK7   BANK8   BANK9  BANK10  BANK11  BANK12  BANK13  BANK14  BANK15  BANK1
      +6  BANK17  BANK18  BANK19  BANK20  BANK21  BANK22  BANK23  BANK24  BANK25  BANK26  BANK27  BANK28  BANK29  BANK30  BANK3
      +1  BANK32  BANK33  BANK34  BANK35  BANK36
  4076 ;;      Params:         0       0       0       0       0       0       0       0       0       0       0       0       
      +0       0       0       0       0       0       0       0       0       0       0       0       0       0       0       
      +0       0       0       0       0       0
  4077 ;;      Locals:         0       0       0       0       0       0       0       0       0       0       0       0       
      +0       0       0       0       0       0       0       0       0       0       0       0       0       0       0       
      +0       0       0       0       0       0
  4078 ;;      Temps:          0       0       0       0       0       0       0       0       0       0       0       0       
      +0       0       0       0       0       0       0       0       0       0       0       0       0       0       0       
      +0       0       0       0       0       0
  4079 ;;      Totals:         0       0       0       0       0       0       0       0       0       0       0       0       
      +0       0       0       0       0       0       0       0       0       0       0       0       0       0       0       
      +0       0       0       0       0       0
  4080 ;;Total ram usage:        0 bytes
  4081 ;; Hardware stack levels used:    1
  4082 ;; Hardware stack levels required when called:    4
  4083 ;; This function calls:
  4084 ;;		Nothing
  4085 ;; This function is called by:
  4086 ;;		_SYSTEM_Initialize
  4087 ;; This function uses a non-reentrant model
  4088 ;;
  4089                           
  4090                           	psect	text21
  4091  0113C0                     __ptext21:
  4092                           	opt callstack 0
  4093  0113C0                     _CMP2_Initialize:
  4094                           	opt callstack 122
  4095  0113C0                     
  4096                           ;mcc_generated_files/cmp2.c: 62:     CM2CON0 = 0x90;
  4097  0113C0  0E90               	movlw	144
  4098  0113C2  0100               	movlb	0	; () banked
  4099  0113C4  6F74               	movwf	116,b	;volatile
  4100                           
  4101                           ;mcc_generated_files/cmp2.c: 65:     CM2CON1 = 0x00;
  4102  0113C6  0E00               	movlw	0
  4103  0113C8  6F75               	movwf	117,b	;volatile
  4104                           
  4105                           ;mcc_generated_files/cmp2.c: 68:     CM2NCH = 0x01;
  4106  0113CA  0E01               	movlw	1
  4107  0113CC  6F76               	movwf	118,b	;volatile
  4108                           
  4109                           ;mcc_generated_files/cmp2.c: 71:     CM2PCH = 0x06;
  4110  0113CE  0E06               	movlw	6
  4111  0113D0  6F77               	movwf	119,b	;volatile
  4112  0113D2                     
  4113                           ; BSR set to: 0
  4114  0113D2  0012               	return		;funcret
  4115  0113D4                     __end_of_CMP2_Initialize:
  4116                           	opt callstack 0
  4117                           
  4118 ;; *************** function _CMP1_Initialize *****************
  4119 ;; Defined at:
  4120 ;;		line 58 in file "mcc_generated_files/cmp1.c"
  4121 ;; Parameters:    Size  Location     Type
  4122 ;;		None
  4123 ;; Auto vars:     Size  Location     Type
  4124 ;;		None
  4125 ;; Return value:  Size  Location     Type
  4126 ;;                  1    wreg      void 
  4127 ;; Registers used:
  4128 ;;		wreg, status,2
  4129 ;; Tracked objects:
  4130 ;;		On entry : 0/0
  4131 ;;		On exit  : 0/0
  4132 ;;		Unchanged: 0/0
  4133 ;; Data sizes:     COMRAM   BANK5   BANK6   BANK7   BANK8   BANK9  BANK10  BANK11  BANK12  BANK13  BANK14  BANK15  BANK1
      +6  BANK17  BANK18  BANK19  BANK20  BANK21  BANK22  BANK23  BANK24  BANK25  BANK26  BANK27  BANK28  BANK29  BANK30  BANK3
      +1  BANK32  BANK33  BANK34  BANK35  BANK36
  4134 ;;      Params:         0       0       0       0       0       0       0       0       0       0       0       0       
      +0       0       0       0       0       0       0       0       0       0       0       0       0       0       0       
      +0       0       0       0       0       0
  4135 ;;      Locals:         0       0       0       0       0       0       0       0       0       0       0       0       
      +0       0       0       0       0       0       0       0       0       0       0       0       0       0       0       
      +0       0       0       0       0       0
  4136 ;;      Temps:          0       0       0       0       0       0       0       0       0       0       0       0       
      +0       0       0       0       0       0       0       0       0       0       0       0       0       0       0       
      +0       0       0       0       0       0
  4137 ;;      Totals:         0       0       0       0       0       0       0       0       0       0       0       0       
      +0       0       0       0       0       0       0       0       0       0       0       0       0       0       0       
      +0       0       0       0       0       0
  4138 ;;Total ram usage:        0 bytes
  4139 ;; Hardware stack levels used:    1
  4140 ;; Hardware stack levels required when called:    4
  4141 ;; This function calls:
  4142 ;;		Nothing
  4143 ;; This function is called by:
  4144 ;;		_SYSTEM_Initialize
  4145 ;; This function uses a non-reentrant model
  4146 ;;
  4147                           
  4148                           	psect	text22
  4149  0113D4                     __ptext22:
  4150                           	opt callstack 0
  4151  0113D4                     _CMP1_Initialize:
  4152                           	opt callstack 122
  4153  0113D4                     
  4154                           ;mcc_generated_files/cmp1.c: 62:     CM1CON0 = 0x80;
  4155  0113D4  0E80               	movlw	128
  4156  0113D6  0100               	movlb	0	; () banked
  4157  0113D8  6F70               	movwf	112,b	;volatile
  4158                           
  4159                           ;mcc_generated_files/cmp1.c: 65:     CM1CON1 = 0x00;
  4160  0113DA  0E00               	movlw	0
  4161  0113DC  6F71               	movwf	113,b	;volatile
  4162                           
  4163                           ;mcc_generated_files/cmp1.c: 68:     CM1NCH = 0x06;
  4164  0113DE  0E06               	movlw	6
  4165  0113E0  6F72               	movwf	114,b	;volatile
  4166                           
  4167                           ;mcc_generated_files/cmp1.c: 71:     CM1PCH = 0x01;
  4168  0113E2  0E01               	movlw	1
  4169  0113E4  6F73               	movwf	115,b	;volatile
  4170  0113E6                     
  4171                           ; BSR set to: 0
  4172  0113E6  0012               	return		;funcret
  4173  0113E8                     __end_of_CMP1_Initialize:
  4174                           	opt callstack 0
  4175                           
  4176 ;; *************** function _ADCC_Initialize *****************
  4177 ;; Defined at:
  4178 ;;		line 62 in file "mcc_generated_files/adcc.c"
  4179 ;; Parameters:    Size  Location     Type
  4180 ;;		None
  4181 ;; Auto vars:     Size  Location     Type
  4182 ;;		None
  4183 ;; Return value:  Size  Location     Type
  4184 ;;                  1    wreg      void 
  4185 ;; Registers used:
  4186 ;;		wreg, status,2
  4187 ;; Tracked objects:
  4188 ;;		On entry : 0/0
  4189 ;;		On exit  : 0/0
  4190 ;;		Unchanged: 0/0
  4191 ;; Data sizes:     COMRAM   BANK5   BANK6   BANK7   BANK8   BANK9  BANK10  BANK11  BANK12  BANK13  BANK14  BANK15  BANK1
      +6  BANK17  BANK18  BANK19  BANK20  BANK21  BANK22  BANK23  BANK24  BANK25  BANK26  BANK27  BANK28  BANK29  BANK30  BANK3
      +1  BANK32  BANK33  BANK34  BANK35  BANK36
  4192 ;;      Params:         0       0       0       0       0       0       0       0       0       0       0       0       
      +0       0       0       0       0       0       0       0       0       0       0       0       0       0       0       
      +0       0       0       0       0       0
  4193 ;;      Locals:         0       0       0       0       0       0       0       0       0       0       0       0       
      +0       0       0       0       0       0       0       0       0       0       0       0       0       0       0       
      +0       0       0       0       0       0
  4194 ;;      Temps:          0       0       0       0       0       0       0       0       0       0       0       0       
      +0       0       0       0       0       0       0       0       0       0       0       0       0       0       0       
      +0       0       0       0       0       0
  4195 ;;      Totals:         0       0       0       0       0       0       0       0       0       0       0       0       
      +0       0       0       0       0       0       0       0       0       0       0       0       0       0       0       
      +0       0       0       0       0       0
  4196 ;;Total ram usage:        0 bytes
  4197 ;; Hardware stack levels used:    1
  4198 ;; Hardware stack levels required when called:    4
  4199 ;; This function calls:
  4200 ;;		Nothing
  4201 ;; This function is called by:
  4202 ;;		_SYSTEM_Initialize
  4203 ;; This function uses a non-reentrant model
  4204 ;;
  4205                           
  4206                           	psect	text23
  4207  011156                     __ptext23:
  4208                           	opt callstack 0
  4209  011156                     _ADCC_Initialize:
  4210                           	opt callstack 122
  4211  011156                     
  4212                           ;mcc_generated_files/adcc.c: 66:     ADLTHL = 0x00;
  4213  011156  0E00               	movlw	0
  4214  011158  0103               	movlb	3	; () banked
  4215  01115A  6FD9               	movwf	217,b	;volatile
  4216                           
  4217                           ;mcc_generated_files/adcc.c: 68:     ADLTHH = 0x00;
  4218  01115C  0E00               	movlw	0
  4219  01115E  6FDA               	movwf	218,b	;volatile
  4220                           
  4221                           ;mcc_generated_files/adcc.c: 70:     ADUTHL = 0x00;
  4222  011160  0E00               	movlw	0
  4223  011162  6FDB               	movwf	219,b	;volatile
  4224                           
  4225                           ;mcc_generated_files/adcc.c: 72:     ADUTHH = 0x00;
  4226  011164  0E00               	movlw	0
  4227  011166  6FDC               	movwf	220,b	;volatile
  4228                           
  4229                           ;mcc_generated_files/adcc.c: 74:     ADSTPTL = 0x00;
  4230  011168  0E00               	movlw	0
  4231  01116A  6FDF               	movwf	223,b	;volatile
  4232                           
  4233                           ;mcc_generated_files/adcc.c: 76:     ADSTPTH = 0x00;
  4234  01116C  0E00               	movlw	0
  4235  01116E  6FE0               	movwf	224,b	;volatile
  4236                           
  4237                           ;mcc_generated_files/adcc.c: 78:     ADACCU = 0x00;
  4238  011170  0E00               	movlw	0
  4239  011172  6FE5               	movwf	229,b	;volatile
  4240                           
  4241                           ;mcc_generated_files/adcc.c: 80:     ADRPT = 0x00;
  4242  011174  0E00               	movlw	0
  4243  011176  6FE7               	movwf	231,b	;volatile
  4244                           
  4245                           ;mcc_generated_files/adcc.c: 82:     ADPCH = 0x00;
  4246  011178  0E00               	movlw	0
  4247  01117A  6FEC               	movwf	236,b	;volatile
  4248                           
  4249                           ;mcc_generated_files/adcc.c: 84:     ADACQL = 0x00;
  4250  01117C  0E00               	movlw	0
  4251  01117E  6FEE               	movwf	238,b	;volatile
  4252                           
  4253                           ;mcc_generated_files/adcc.c: 86:     ADACQH = 0x00;
  4254  011180  0E00               	movlw	0
  4255  011182  6FEF               	movwf	239,b	;volatile
  4256                           
  4257                           ;mcc_generated_files/adcc.c: 88:     ADCAP = 0x00;
  4258  011184  0E00               	movlw	0
  4259  011186  6FF0               	movwf	240,b	;volatile
  4260                           
  4261                           ;mcc_generated_files/adcc.c: 90:     ADPREL = 0x00;
  4262  011188  0E00               	movlw	0
  4263  01118A  6FF1               	movwf	241,b	;volatile
  4264                           
  4265                           ;mcc_generated_files/adcc.c: 92:     ADPREH = 0x00;
  4266  01118C  0E00               	movlw	0
  4267  01118E  6FF2               	movwf	242,b	;volatile
  4268                           
  4269                           ;mcc_generated_files/adcc.c: 94:     ADCON1 = 0x00;
  4270  011190  0E00               	movlw	0
  4271  011192  6FF4               	movwf	244,b	;volatile
  4272                           
  4273                           ;mcc_generated_files/adcc.c: 96:     ADCON2 = 0x00;
  4274  011194  0E00               	movlw	0
  4275  011196  6FF5               	movwf	245,b	;volatile
  4276                           
  4277                           ;mcc_generated_files/adcc.c: 98:     ADCON3 = 0x00;
  4278  011198  0E00               	movlw	0
  4279  01119A  6FF6               	movwf	246,b	;volatile
  4280                           
  4281                           ;mcc_generated_files/adcc.c: 100:     ADSTAT = 0x00;
  4282  01119C  0E00               	movlw	0
  4283  01119E  6FF7               	movwf	247,b	;volatile
  4284                           
  4285                           ;mcc_generated_files/adcc.c: 102:     ADREF = 0x00;
  4286  0111A0  0E00               	movlw	0
  4287  0111A2  6FF8               	movwf	248,b	;volatile
  4288                           
  4289                           ;mcc_generated_files/adcc.c: 104:     ADACT = 0x00;
  4290  0111A4  0E00               	movlw	0
  4291  0111A6  6FF9               	movwf	249,b	;volatile
  4292                           
  4293                           ;mcc_generated_files/adcc.c: 106:     ADCLK = 0x3F;
  4294  0111A8  0E3F               	movlw	63
  4295  0111AA  6FFA               	movwf	250,b	;volatile
  4296                           
  4297                           ;mcc_generated_files/adcc.c: 108:     ADCON0 = 0x84;
  4298  0111AC  0E84               	movlw	132
  4299  0111AE  6FF3               	movwf	243,b	;volatile
  4300  0111B0                     
  4301                           ; BSR set to: 3
  4302  0111B0  0012               	return		;funcret
  4303  0111B2                     __end_of_ADCC_Initialize:
  4304                           	opt callstack 0
  4305                           
  4306 ;; *************** function _INTERRUPT_InterruptManager *****************
  4307 ;; Defined at:
  4308 ;;		line 58 in file "mcc_generated_files/interrupt_manager.c"
  4309 ;; Parameters:    Size  Location     Type
  4310 ;;		None
  4311 ;; Auto vars:     Size  Location     Type
  4312 ;;		None
  4313 ;; Return value:  Size  Location     Type
  4314 ;;                  1    wreg      void 
  4315 ;; Registers used:
  4316 ;;		wreg, fsr2l, fsr2h, status,2, status,0, pclath, tosl, tblptrl, tblptrh, tblptru, prodl, prodh, cstack
  4317 ;; Tracked objects:
  4318 ;;		On entry : 0/0
  4319 ;;		On exit  : 0/0
  4320 ;;		Unchanged: 0/0
  4321 ;; Data sizes:     COMRAM   BANK5   BANK6   BANK7   BANK8   BANK9  BANK10  BANK11  BANK12  BANK13  BANK14  BANK15  BANK1
      +6  BANK17  BANK18  BANK19  BANK20  BANK21  BANK22  BANK23  BANK24  BANK25  BANK26  BANK27  BANK28  BANK29  BANK30  BANK3
      +1  BANK32  BANK33  BANK34  BANK35  BANK36
  4322 ;;      Params:         0       0       0       0       0       0       0       0       0       0       0       0       
      +0       0       0       0       0       0       0       0       0       0       0       0       0       0       0       
      +0       0       0       0       0       0
  4323 ;;      Locals:         0       0       0       0       0       0       0       0       0       0       0       0       
      +0       0       0       0       0       0       0       0       0       0       0       0       0       0       0       
      +0       0       0       0       0       0
  4324 ;;      Temps:          4       0       0       0       0       0       0       0       0       0       0       0       
      +0       0       0       0       0       0       0       0       0       0       0       0       0       0       0       
      +0       0       0       0       0       0
  4325 ;;      Totals:         4       0       0       0       0       0       0       0       0       0       0       0       
      +0       0       0       0       0       0       0       0       0       0       0       0       0       0       0       
      +0       0       0       0       0       0
  4326 ;;Total ram usage:        4 bytes
  4327 ;; Hardware stack levels used:    1
  4328 ;; Hardware stack levels required when called:    3
  4329 ;; This function calls:
  4330 ;;		_TMR1_ISR
  4331 ;; This function is called by:
  4332 ;;		Interrupt level 2
  4333 ;; This function uses a non-reentrant model
  4334 ;;
  4335                           
  4336                           	psect	text24
  4337  0111B2                     __ptext24:
  4338                           	opt callstack 0
  4339  0111B2                     _INTERRUPT_InterruptManager:
  4340                           	opt callstack 121
  4341                           
  4342                           ; BSR set to: 3
  4343                           ;incstack = 0
  4344  0111B2  0061 F3D8  F513    	movff	tblptrl,??_INTERRUPT_InterruptManager
  4345  0111B8  0061 F3DC  F514    	movff	tblptrh,??_INTERRUPT_InterruptManager+1
  4346  0111BE  0061 F3E0  F515    	movff	tblptru,??_INTERRUPT_InterruptManager+2
  4347  0111C4  0061 F3D4  F516    	movff	tablat,??_INTERRUPT_InterruptManager+3
  4348  0111CA                     
  4349                           ;mcc_generated_files/interrupt_manager.c: 61:     if(PIE3bits.TMR1IE == 1 && PIR3bits.TM
      +                          R1IF == 1)
  4350  0111CA  A8A1               	btfss	161,4,c	;volatile
  4351  0111CC  EFEA  F088         	goto	i2u146_41
  4352  0111D0  EFEC  F088         	goto	i2u146_40
  4353  0111D4                     i2u146_41:
  4354  0111D4  EFF5  F088         	goto	i2l425
  4355  0111D8                     i2u146_40:
  4356  0111D8  A8B1               	btfss	177,4,c	;volatile
  4357  0111DA  EFF1  F088         	goto	i2u147_41
  4358  0111DE  EFF3  F088         	goto	i2u147_40
  4359  0111E2                     i2u147_41:
  4360  0111E2  EFF5  F088         	goto	i2l425
  4361  0111E6                     i2u147_40:
  4362  0111E6                     
  4363                           ;mcc_generated_files/interrupt_manager.c: 62:     {;mcc_generated_files/interrupt_manage
      +                          r.c: 63:         TMR1_ISR();
  4364  0111E6  ECB4  F089         	call	_TMR1_ISR	;wreg free
  4365  0111EA                     i2l425:
  4366  0111EA  0061  F458  F4F5   	movff	??_INTERRUPT_InterruptManager+3,tablat
  4367  0111F0  0061  F454  F4F8   	movff	??_INTERRUPT_InterruptManager+2,tblptru
  4368  0111F6  0061  F450  F4F7   	movff	??_INTERRUPT_InterruptManager+1,tblptrh
  4369  0111FC  0061  F44C  F4F6   	movff	??_INTERRUPT_InterruptManager,tblptrl
  4370  011202  0011               	retfie		f
  4371  011204                     __end_of_INTERRUPT_InterruptManager:
  4372                           	opt callstack 0
  4373                           
  4374 ;; *************** function _TMR1_ISR *****************
  4375 ;; Defined at:
  4376 ;;		line 164 in file "mcc_generated_files/tmr1.c"
  4377 ;; Parameters:    Size  Location     Type
  4378 ;;		None
  4379 ;; Auto vars:     Size  Location     Type
  4380 ;;		None
  4381 ;; Return value:  Size  Location     Type
  4382 ;;                  1    wreg      void 
  4383 ;; Registers used:
  4384 ;;		wreg, fsr2l, fsr2h, status,2, status,0, pclath, tosl, tblptrl, tblptrh, tblptru, prodl, prodh, cstack
  4385 ;; Tracked objects:
  4386 ;;		On entry : 0/0
  4387 ;;		On exit  : 0/0
  4388 ;;		Unchanged: 0/0
  4389 ;; Data sizes:     COMRAM   BANK5   BANK6   BANK7   BANK8   BANK9  BANK10  BANK11  BANK12  BANK13  BANK14  BANK15  BANK1
      +6  BANK17  BANK18  BANK19  BANK20  BANK21  BANK22  BANK23  BANK24  BANK25  BANK26  BANK27  BANK28  BANK29  BANK30  BANK3
      +1  BANK32  BANK33  BANK34  BANK35  BANK36
  4390 ;;      Params:         0       0       0       0       0       0       0       0       0       0       0       0       
      +0       0       0       0       0       0       0       0       0       0       0       0       0       0       0       
      +0       0       0       0       0       0
  4391 ;;      Locals:         0       0       0       0       0       0       0       0       0       0       0       0       
      +0       0       0       0       0       0       0       0       0       0       0       0       0       0       0       
      +0       0       0       0       0       0
  4392 ;;      Temps:          0       0       0       0       0       0       0       0       0       0       0       0       
      +0       0       0       0       0       0       0       0       0       0       0       0       0       0       0       
      +0       0       0       0       0       0
  4393 ;;      Totals:         0       0       0       0       0       0       0       0       0       0       0       0       
      +0       0       0       0       0       0       0       0       0       0       0       0       0       0       0       
      +0       0       0       0       0       0
  4394 ;;Total ram usage:        0 bytes
  4395 ;; Hardware stack levels used:    1
  4396 ;; Hardware stack levels required when called:    2
  4397 ;; This function calls:
  4398 ;;		_TMR1_CallBack
  4399 ;;		_TMR1_WriteTimer
  4400 ;; This function is called by:
  4401 ;;		_INTERRUPT_InterruptManager
  4402 ;; This function uses a non-reentrant model
  4403 ;;
  4404                           
  4405                           	psect	text25
  4406  011368                     __ptext25:
  4407                           	opt callstack 0
  4408  011368                     _TMR1_ISR:
  4409                           	opt callstack 121
  4410  011368                     
  4411                           ;mcc_generated_files/tmr1.c: 168:     PIR3bits.TMR1IF = 0;
  4412  011368  98B1               	bcf	177,4,c	;volatile
  4413  01136A                     
  4414                           ;mcc_generated_files/tmr1.c: 169:     TMR1_WriteTimer(timer1ReloadVal);
  4415  01136A  0061  F7BC  F501   	movff	_timer1ReloadVal,TMR1_WriteTimer@timerVal	;volatile
  4416  011370  0061  F7C0  F502   	movff	_timer1ReloadVal+1,TMR1_WriteTimer@timerVal+1	;volatile
  4417  011376  EC59  F089         	call	_TMR1_WriteTimer	;wreg free
  4418  01137A                     
  4419                           ;mcc_generated_files/tmr1.c: 173:     TMR1_CallBack();
  4420  01137A  EC29  F089         	call	_TMR1_CallBack	;wreg free
  4421  01137E  0012               	return		;funcret
  4422  011380                     __end_of_TMR1_ISR:
  4423                           	opt callstack 0
  4424                           
  4425 ;; *************** function _TMR1_WriteTimer *****************
  4426 ;; Defined at:
  4427 ;;		line 127 in file "mcc_generated_files/tmr1.c"
  4428 ;; Parameters:    Size  Location     Type
  4429 ;;  timerVal        2    0[COMRAM] unsigned short 
  4430 ;; Auto vars:     Size  Location     Type
  4431 ;;		None
  4432 ;; Return value:  Size  Location     Type
  4433 ;;                  1    wreg      void 
  4434 ;; Registers used:
  4435 ;;		wreg, status,2
  4436 ;; Tracked objects:
  4437 ;;		On entry : 0/0
  4438 ;;		On exit  : 0/0
  4439 ;;		Unchanged: 0/0
  4440 ;; Data sizes:     COMRAM   BANK5   BANK6   BANK7   BANK8   BANK9  BANK10  BANK11  BANK12  BANK13  BANK14  BANK15  BANK1
      +6  BANK17  BANK18  BANK19  BANK20  BANK21  BANK22  BANK23  BANK24  BANK25  BANK26  BANK27  BANK28  BANK29  BANK30  BANK3
      +1  BANK32  BANK33  BANK34  BANK35  BANK36
  4441 ;;      Params:         2       0       0       0       0       0       0       0       0       0       0       0       
      +0       0       0       0       0       0       0       0       0       0       0       0       0       0       0       
      +0       0       0       0       0       0
  4442 ;;      Locals:         0       0       0       0       0       0       0       0       0       0       0       0       
      +0       0       0       0       0       0       0       0       0       0       0       0       0       0       0       
      +0       0       0       0       0       0
  4443 ;;      Temps:          0       0       0       0       0       0       0       0       0       0       0       0       
      +0       0       0       0       0       0       0       0       0       0       0       0       0       0       0       
      +0       0       0       0       0       0
  4444 ;;      Totals:         2       0       0       0       0       0       0       0       0       0       0       0       
      +0       0       0       0       0       0       0       0       0       0       0       0       0       0       0       
      +0       0       0       0       0       0
  4445 ;;Total ram usage:        2 bytes
  4446 ;; Hardware stack levels used:    1
  4447 ;; This function calls:
  4448 ;;		Nothing
  4449 ;; This function is called by:
  4450 ;;		_TMR1_ISR
  4451 ;;		_TMR1_Reload
  4452 ;; This function uses a non-reentrant model
  4453 ;;
  4454                           
  4455                           	psect	text26
  4456  0112B2                     __ptext26:
  4457                           	opt callstack 0
  4458  0112B2                     _TMR1_WriteTimer:
  4459                           	opt callstack 122
  4460  0112B2                     
  4461                           ;mcc_generated_files/tmr1.c: 127: void TMR1_WriteTimer(uint16_t timerVal);mcc_generated_
      +                          files/tmr1.c: 128: {;mcc_generated_files/tmr1.c: 129:     if (T1CONbits.NOT_SYNC == 1)
  4462  0112B2  0103               	movlb	3	; () banked
  4463  0112B4  A51E               	btfss	30,2,b	;volatile
  4464  0112B6  EF5F  F089         	goto	i2u99_41
  4465  0112BA  EF61  F089         	goto	i2u99_40
  4466  0112BE                     i2u99_41:
  4467  0112BE  EF6A  F089         	goto	i2l1975
  4468  0112C2                     i2u99_40:
  4469  0112C2                     
  4470                           ; BSR set to: 3
  4471                           ;mcc_generated_files/tmr1.c: 130:     {;mcc_generated_files/tmr1.c: 132:         T1CONbi
      +                          ts.TMR1ON = 0;
  4472  0112C2  911E               	bcf	30,0,b	;volatile
  4473  0112C4                     
  4474                           ; BSR set to: 3
  4475                           ;mcc_generated_files/tmr1.c: 135:         TMR1H = (timerVal >> 8);
  4476  0112C4  5002               	movf	(TMR1_WriteTimer@timerVal+1)^(0+1280),w,c
  4477  0112C6  6F1D               	movwf	29,b	;volatile
  4478  0112C8                     
  4479                           ; BSR set to: 3
  4480                           ;mcc_generated_files/tmr1.c: 136:         TMR1L = timerVal;
  4481  0112C8  0061  F404  F31C   	movff	TMR1_WriteTimer@timerVal,796	;volatile
  4482  0112CE                     
  4483                           ; BSR set to: 3
  4484                           ;mcc_generated_files/tmr1.c: 139:         T1CONbits.TMR1ON =1;
  4485  0112CE  811E               	bsf	30,0,b	;volatile
  4486                           
  4487                           ;mcc_generated_files/tmr1.c: 140:     }
  4488  0112D0  EF6F  F089         	goto	i2l385
  4489  0112D4                     i2l1975:
  4490                           
  4491                           ; BSR set to: 3
  4492                           ;mcc_generated_files/tmr1.c: 142:     {;mcc_generated_files/tmr1.c: 144:         TMR1H =
      +                           (timerVal >> 8);
  4493  0112D4  5002               	movf	(TMR1_WriteTimer@timerVal+1)^(0+1280),w,c
  4494  0112D6  6F1D               	movwf	29,b	;volatile
  4495  0112D8                     
  4496                           ; BSR set to: 3
  4497                           ;mcc_generated_files/tmr1.c: 145:         TMR1L = timerVal;
  4498  0112D8  0061  F404  F31C   	movff	TMR1_WriteTimer@timerVal,796	;volatile
  4499  0112DE                     i2l385:
  4500                           
  4501                           ; BSR set to: 3
  4502  0112DE  0012               	return		;funcret
  4503  0112E0                     __end_of_TMR1_WriteTimer:
  4504                           	opt callstack 0
  4505                           
  4506 ;; *************** function _TMR1_CallBack *****************
  4507 ;; Defined at:
  4508 ;;		line 176 in file "mcc_generated_files/tmr1.c"
  4509 ;; Parameters:    Size  Location     Type
  4510 ;;		None
  4511 ;; Auto vars:     Size  Location     Type
  4512 ;;		None
  4513 ;; Return value:  Size  Location     Type
  4514 ;;                  1    wreg      void 
  4515 ;; Registers used:
  4516 ;;		wreg, fsr2l, fsr2h, status,2, status,0, pclath, tosl, tblptrl, tblptrh, tblptru, prodl, prodh, cstack
  4517 ;; Tracked objects:
  4518 ;;		On entry : 0/0
  4519 ;;		On exit  : 0/0
  4520 ;;		Unchanged: 0/0
  4521 ;; Data sizes:     COMRAM   BANK5   BANK6   BANK7   BANK8   BANK9  BANK10  BANK11  BANK12  BANK13  BANK14  BANK15  BANK1
      +6  BANK17  BANK18  BANK19  BANK20  BANK21  BANK22  BANK23  BANK24  BANK25  BANK26  BANK27  BANK28  BANK29  BANK30  BANK3
      +1  BANK32  BANK33  BANK34  BANK35  BANK36
  4522 ;;      Params:         0       0       0       0       0       0       0       0       0       0       0       0       
      +0       0       0       0       0       0       0       0       0       0       0       0       0       0       0       
      +0       0       0       0       0       0
  4523 ;;      Locals:         0       0       0       0       0       0       0       0       0       0       0       0       
      +0       0       0       0       0       0       0       0       0       0       0       0       0       0       0       
      +0       0       0       0       0       0
  4524 ;;      Temps:          0       0       0       0       0       0       0       0       0       0       0       0       
      +0       0       0       0       0       0       0       0       0       0       0       0       0       0       0       
      +0       0       0       0       0       0
  4525 ;;      Totals:         0       0       0       0       0       0       0       0       0       0       0       0       
      +0       0       0       0       0       0       0       0       0       0       0       0       0       0       0       
      +0       0       0       0       0       0
  4526 ;;Total ram usage:        0 bytes
  4527 ;; Hardware stack levels used:    1
  4528 ;; Hardware stack levels required when called:    1
  4529 ;; This function calls:
  4530 ;;		Absolute function
  4531 ;;		_TMR1_DefaultInterruptHandler
  4532 ;;		_doAudio
  4533 ;; This function is called by:
  4534 ;;		_TMR1_ISR
  4535 ;; This function uses a non-reentrant model
  4536 ;;
  4537                           
  4538                           	psect	text27
  4539  011252                     __ptext27:
  4540                           	opt callstack 0
  4541  011252                     _TMR1_CallBack:
  4542                           	opt callstack 121
  4543  011252                     
  4544                           ;mcc_generated_files/tmr1.c: 179:     if(TMR1_InterruptHandler)
  4545  011252  0105               	movlb	5	; () banked
  4546  011254  51EA               	movf	_TMR1_InterruptHandler& (0+255),w,b
  4547  011256  11EB               	iorwf	(_TMR1_InterruptHandler+1)& (0+255),w,b
  4548  011258  11EC               	iorwf	(_TMR1_InterruptHandler+2)& (0+255),w,b
  4549  01125A  B4D8               	btfsc	status,2,c
  4550  01125C  EF32  F089         	goto	i2u100_41
  4551  011260  EF34  F089         	goto	i2u100_40
  4552  011264                     i2u100_41:
  4553  011264  EF41  F089         	goto	i2l401
  4554  011268                     i2u100_40:
  4555  011268                     
  4556                           ; BSR set to: 5
  4557                           ;mcc_generated_files/tmr1.c: 180:     {;mcc_generated_files/tmr1.c: 181:         TMR1_In
      +                          terruptHandler();
  4558  011268  D802               	call	i2u101_48
  4559  01126A  EF41  F089         	goto	i2u101_49
  4560  01126E                     i2u101_48:
  4561  01126E  0005               	push	
  4562  011270  6EFA               	movwf	pclath,c
  4563  011272  51EA               	movf	_TMR1_InterruptHandler& (0+255),w,b
  4564  011274  6EFD               	movwf	tosl,c
  4565  011276  51EB               	movf	(_TMR1_InterruptHandler+1)& (0+255),w,b
  4566  011278  6EFE               	movwf	tosh,c
  4567  01127A  51EC               	movf	(_TMR1_InterruptHandler+2)& (0+255),w,b
  4568  01127C  6EFF               	movwf	tosu,c
  4569  01127E  50FA               	movf	pclath,w,c
  4570  011280  0012               	return		;indir
  4571  011282                     i2u101_49:
  4572  011282                     i2l401:
  4573  011282  0012               	return		;funcret
  4574  011284                     __end_of_TMR1_CallBack:
  4575                           	opt callstack 0
  4576                           
  4577 ;; *************** function _TMR1_DefaultInterruptHandler *****************
  4578 ;; Defined at:
  4579 ;;		line 189 in file "mcc_generated_files/tmr1.c"
  4580 ;; Parameters:    Size  Location     Type
  4581 ;;		None
  4582 ;; Auto vars:     Size  Location     Type
  4583 ;;		None
  4584 ;; Return value:  Size  Location     Type
  4585 ;;                  1    wreg      void 
  4586 ;; Registers used:
  4587 ;;		None
  4588 ;; Tracked objects:
  4589 ;;		On entry : 0/0
  4590 ;;		On exit  : 0/0
  4591 ;;		Unchanged: 0/0
  4592 ;; Data sizes:     COMRAM   BANK5   BANK6   BANK7   BANK8   BANK9  BANK10  BANK11  BANK12  BANK13  BANK14  BANK15  BANK1
      +6  BANK17  BANK18  BANK19  BANK20  BANK21  BANK22  BANK23  BANK24  BANK25  BANK26  BANK27  BANK28  BANK29  BANK30  BANK3
      +1  BANK32  BANK33  BANK34  BANK35  BANK36
  4593 ;;      Params:         0       0       0       0       0       0       0       0       0       0       0       0       
      +0       0       0       0       0       0       0       0       0       0       0       0       0       0       0       
      +0       0       0       0       0       0
  4594 ;;      Locals:         0       0       0       0       0       0       0       0       0       0       0       0       
      +0       0       0       0       0       0       0       0       0       0       0       0       0       0       0       
      +0       0       0       0       0       0
  4595 ;;      Temps:          0       0       0       0       0       0       0       0       0       0       0       0       
      +0       0       0       0       0       0       0       0       0       0       0       0       0       0       0       
      +0       0       0       0       0       0
  4596 ;;      Totals:         0       0       0       0       0       0       0       0       0       0       0       0       
      +0       0       0       0       0       0       0       0       0       0       0       0       0       0       0       
      +0       0       0       0       0       0
  4597 ;;Total ram usage:        0 bytes
  4598 ;; Hardware stack levels used:    1
  4599 ;; This function calls:
  4600 ;;		Nothing
  4601 ;; This function is called by:
  4602 ;;		_TMR1_Initialize
  4603 ;;		_TMR1_CallBack
  4604 ;; This function uses a non-reentrant model
  4605 ;;
  4606                           
  4607                           	psect	text28
  4608  01141A                     __ptext28:
  4609                           	opt callstack 0
  4610  01141A                     _TMR1_DefaultInterruptHandler:
  4611                           	opt callstack 121
  4612  01141A  0012               	return		;funcret
  4613  01141C                     __end_of_TMR1_DefaultInterruptHandler:
  4614                           	opt callstack 0
  4615                           
  4616 ;; *************** function _doAudio *****************
  4617 ;; Defined at:
  4618 ;;		line 105 in file "main.c"
  4619 ;; Parameters:    Size  Location     Type
  4620 ;;		None
  4621 ;; Auto vars:     Size  Location     Type
  4622 ;;		None
  4623 ;; Return value:  Size  Location     Type
  4624 ;;                  1    wreg      void 
  4625 ;; Registers used:
  4626 ;;		wreg, fsr2l, fsr2h, status,2, status,0, tblptrl, tblptrh, tblptru, prodl, prodh
  4627 ;; Tracked objects:
  4628 ;;		On entry : 0/0
  4629 ;;		On exit  : 0/0
  4630 ;;		Unchanged: 0/0
  4631 ;; Data sizes:     COMRAM   BANK5   BANK6   BANK7   BANK8   BANK9  BANK10  BANK11  BANK12  BANK13  BANK14  BANK15  BANK1
      +6  BANK17  BANK18  BANK19  BANK20  BANK21  BANK22  BANK23  BANK24  BANK25  BANK26  BANK27  BANK28  BANK29  BANK30  BANK3
      +1  BANK32  BANK33  BANK34  BANK35  BANK36
  4632 ;;      Params:         0       0       0       0       0       0       0       0       0       0       0       0       
      +0       0       0       0       0       0       0       0       0       0       0       0       0       0       0       
      +0       0       0       0       0       0
  4633 ;;      Locals:         0       0       0       0       0       0       0       0       0       0       0       0       
      +0       0       0       0       0       0       0       0       0       0       0       0       0       0       0       
      +0       0       0       0       0       0
  4634 ;;      Temps:         18       0       0       0       0       0       0       0       0       0       0       0       
      +0       0       0       0       0       0       0       0       0       0       0       0       0       0       0       
      +0       0       0       0       0       0
  4635 ;;      Totals:        18       0       0       0       0       0       0       0       0       0       0       0       
      +0       0       0       0       0       0       0       0       0       0       0       0       0       0       0       
      +0       0       0       0       0       0
  4636 ;;Total ram usage:       18 bytes
  4637 ;; Hardware stack levels used:    1
  4638 ;; This function calls:
  4639 ;;		Nothing
  4640 ;; This function is called by:
  4641 ;;		_main
  4642 ;;		_TMR1_CallBack
  4643 ;; This function uses a non-reentrant model
  4644 ;;
  4645                           
  4646                           	psect	text29
  4647  010000                     __ptext29:
  4648                           	opt callstack 0
  4649  010000                     _doAudio:
  4650                           	opt callstack 121
  4651  010000                     
  4652                           ;main.c: 118:     test = 10;
  4653  010000  0E0A               	movlw	10
  4654  010002  6E49               	movwf	_test^(0+1280),c
  4655                           
  4656                           ;main.c: 120:     if(potFlag){
  4657  010004  5045               	movf	_potFlag^(0+1280),w,c
  4658  010006  B4D8               	btfsc	status,2,c
  4659  010008  EF08  F080         	goto	i2u75_41
  4660  01000C  EF0A  F080         	goto	i2u75_40
  4661  010010                     i2u75_41:
  4662  010010  EF1B  F080         	goto	i2l1833
  4663  010014                     i2u75_40:
  4664  010014                     
  4665                           ;main.c: 125:         freqIncr = clockVal;
  4666  010014  C598  F5B2         	movff	_clockVal,_freqIncr
  4667  010018  C599  F5B3         	movff	_clockVal+1,_freqIncr+1
  4668  01001C                     
  4669                           ;main.c: 126:         potArray = !potArray;
  4670  01001C  5044               	movf	_potArray^(0+1280),w,c
  4671  01001E  B4D8               	btfsc	status,2,c
  4672  010020  EF14  F080         	goto	i2u76_41
  4673  010024  EF17  F080         	goto	i2u76_40
  4674  010028                     i2u76_41:
  4675  010028  0E01               	movlw	1
  4676  01002A  EF18  F080         	goto	i2u77_40
  4677  01002E                     i2u76_40:
  4678  01002E  0E00               	movlw	0
  4679  010030                     i2u77_40:
  4680  010030  6E44               	movwf	_potArray^(0+1280),c
  4681                           
  4682                           ;main.c: 127:         potFlag = 0;
  4683  010032  0E00               	movlw	0
  4684  010034  6E45               	movwf	_potFlag^(0+1280),c
  4685  010036                     i2l1833:
  4686                           
  4687                           ;main.c: 130:     ind[0] += incr[potArray][0];
  4688  010036  5044               	movf	_potArray^(0+1280),w,c
  4689  010038  0D10               	mullw	16
  4690  01003A  0E60               	movlw	low _incr
  4691  01003C  24F3               	addwf	243,w,c
  4692  01003E  6ED9               	movwf	fsr2l,c
  4693  010040  0E05               	movlw	high _incr
  4694  010042  20F4               	addwfc	prodh,w,c
  4695  010044  6EDA               	movwf	fsr2h,c
  4696  010046  50DE               	movf	postinc2,w,c
  4697  010048  0105               	movlb	5	; () banked
  4698  01004A  2780               	addwf	_ind& (0+255),f,b
  4699  01004C  50DD               	movf	postdec2,w,c
  4700  01004E  2381               	addwfc	(_ind+1)& (0+255),f,b
  4701  010050                     
  4702                           ; BSR set to: 5
  4703                           ;main.c: 131:     if(ind[0] > 8192){ ind[0] -= 8192; }
  4704  010050  0580               	decf	_ind& (0+255),w,b
  4705  010052  0E20               	movlw	32
  4706  010054  5981               	subwfb	(_ind+1)& (0+255),w,b
  4707  010056  A0D8               	btfss	status,0,c
  4708  010058  EF30  F080         	goto	i2u78_41
  4709  01005C  EF32  F080         	goto	i2u78_40
  4710  010060                     i2u78_41:
  4711  010060  EF36  F080         	goto	i2l1839
  4712  010064                     i2u78_40:
  4713  010064                     
  4714                           ; BSR set to: 5
  4715  010064  0E00               	movlw	0
  4716  010066  5F80               	subwf	_ind& (0+255),f,b
  4717  010068  0E20               	movlw	32
  4718  01006A  5B81               	subwfb	(_ind+1)& (0+255),f,b
  4719  01006C                     i2l1839:
  4720                           
  4721                           ; BSR set to: 5
  4722                           ;main.c: 133:     ind[1] += incr[potArray][1];
  4723  01006C  5044               	movf	_potArray^(0+1280),w,c
  4724  01006E  0D10               	mullw	16
  4725  010070  0E62               	movlw	low (_incr+2)
  4726  010072  24F3               	addwf	243,w,c
  4727  010074  6ED9               	movwf	fsr2l,c
  4728  010076  0E05               	movlw	high (_incr+2)
  4729  010078  20F4               	addwfc	prodh,w,c
  4730  01007A  6EDA               	movwf	fsr2h,c
  4731  01007C  50DE               	movf	postinc2,w,c
  4732  01007E  2782               	addwf	(_ind+2)& (0+255),f,b
  4733  010080  50DD               	movf	postdec2,w,c
  4734  010082  2383               	addwfc	(_ind+3)& (0+255),f,b
  4735  010084                     
  4736                           ; BSR set to: 5
  4737                           ;main.c: 134:     if(ind[1] > 8192){ ind[1] -= 8192; }
  4738  010084  0582               	decf	(_ind+2)& (0+255),w,b
  4739  010086  0E20               	movlw	32
  4740  010088  5983               	subwfb	(_ind+3)& (0+255),w,b
  4741  01008A  A0D8               	btfss	status,0,c
  4742  01008C  EF4A  F080         	goto	i2u79_41
  4743  010090  EF4C  F080         	goto	i2u79_40
  4744  010094                     i2u79_41:
  4745  010094  EF50  F080         	goto	i2l1845
  4746  010098                     i2u79_40:
  4747  010098                     
  4748                           ; BSR set to: 5
  4749  010098  0E00               	movlw	0
  4750  01009A  5F82               	subwf	(_ind+2)& (0+255),f,b
  4751  01009C  0E20               	movlw	32
  4752  01009E  5B83               	subwfb	(_ind+3)& (0+255),f,b
  4753  0100A0                     i2l1845:
  4754                           
  4755                           ; BSR set to: 5
  4756                           ;main.c: 136:     ind[2] += incr[potArray][2];
  4757  0100A0  5044               	movf	_potArray^(0+1280),w,c
  4758  0100A2  0D10               	mullw	16
  4759  0100A4  0E64               	movlw	low (_incr+4)
  4760  0100A6  24F3               	addwf	243,w,c
  4761  0100A8  6ED9               	movwf	fsr2l,c
  4762  0100AA  0E05               	movlw	high (_incr+4)
  4763  0100AC  20F4               	addwfc	prodh,w,c
  4764  0100AE  6EDA               	movwf	fsr2h,c
  4765  0100B0  50DE               	movf	postinc2,w,c
  4766  0100B2  2784               	addwf	(_ind+4)& (0+255),f,b
  4767  0100B4  50DD               	movf	postdec2,w,c
  4768  0100B6  2385               	addwfc	(_ind+5)& (0+255),f,b
  4769  0100B8                     
  4770                           ; BSR set to: 5
  4771                           ;main.c: 137:     if(ind[2] > 8192){ ind[2] -= 8192; }
  4772  0100B8  0584               	decf	(_ind+4)& (0+255),w,b
  4773  0100BA  0E20               	movlw	32
  4774  0100BC  5985               	subwfb	(_ind+5)& (0+255),w,b
  4775  0100BE  A0D8               	btfss	status,0,c
  4776  0100C0  EF64  F080         	goto	i2u80_41
  4777  0100C4  EF66  F080         	goto	i2u80_40
  4778  0100C8                     i2u80_41:
  4779  0100C8  EF6A  F080         	goto	i2l1851
  4780  0100CC                     i2u80_40:
  4781  0100CC                     
  4782                           ; BSR set to: 5
  4783  0100CC  0E00               	movlw	0
  4784  0100CE  5F84               	subwf	(_ind+4)& (0+255),f,b
  4785  0100D0  0E20               	movlw	32
  4786  0100D2  5B85               	subwfb	(_ind+5)& (0+255),f,b
  4787  0100D4                     i2l1851:
  4788                           
  4789                           ; BSR set to: 5
  4790                           ;main.c: 139:     ind[3] += incr[potArray][3];
  4791  0100D4  5044               	movf	_potArray^(0+1280),w,c
  4792  0100D6  0D10               	mullw	16
  4793  0100D8  0E66               	movlw	low (_incr+6)
  4794  0100DA  24F3               	addwf	243,w,c
  4795  0100DC  6ED9               	movwf	fsr2l,c
  4796  0100DE  0E05               	movlw	high (_incr+6)
  4797  0100E0  20F4               	addwfc	prodh,w,c
  4798  0100E2  6EDA               	movwf	fsr2h,c
  4799  0100E4  50DE               	movf	postinc2,w,c
  4800  0100E6  2786               	addwf	(_ind+6)& (0+255),f,b
  4801  0100E8  50DD               	movf	postdec2,w,c
  4802  0100EA  2387               	addwfc	(_ind+7)& (0+255),f,b
  4803  0100EC                     
  4804                           ; BSR set to: 5
  4805                           ;main.c: 140:     if(ind[3] > 8192){ ind[3] -= 8192; }
  4806  0100EC  0586               	decf	(_ind+6)& (0+255),w,b
  4807  0100EE  0E20               	movlw	32
  4808  0100F0  5987               	subwfb	(_ind+7)& (0+255),w,b
  4809  0100F2  A0D8               	btfss	status,0,c
  4810  0100F4  EF7E  F080         	goto	i2u81_41
  4811  0100F8  EF80  F080         	goto	i2u81_40
  4812  0100FC                     i2u81_41:
  4813  0100FC  EF84  F080         	goto	i2l1857
  4814  010100                     i2u81_40:
  4815  010100                     
  4816                           ; BSR set to: 5
  4817  010100  0E00               	movlw	0
  4818  010102  5F86               	subwf	(_ind+6)& (0+255),f,b
  4819  010104  0E20               	movlw	32
  4820  010106  5B87               	subwfb	(_ind+7)& (0+255),f,b
  4821  010108                     i2l1857:
  4822                           
  4823                           ; BSR set to: 5
  4824                           ;main.c: 142:     ind[4] += incr[potArray][4];
  4825  010108  5044               	movf	_potArray^(0+1280),w,c
  4826  01010A  0D10               	mullw	16
  4827  01010C  0E68               	movlw	low (_incr+8)
  4828  01010E  24F3               	addwf	243,w,c
  4829  010110  6ED9               	movwf	fsr2l,c
  4830  010112  0E05               	movlw	high (_incr+8)
  4831  010114  20F4               	addwfc	prodh,w,c
  4832  010116  6EDA               	movwf	fsr2h,c
  4833  010118  50DE               	movf	postinc2,w,c
  4834  01011A  2788               	addwf	(_ind+8)& (0+255),f,b
  4835  01011C  50DD               	movf	postdec2,w,c
  4836  01011E  2389               	addwfc	(_ind+9)& (0+255),f,b
  4837  010120                     
  4838                           ; BSR set to: 5
  4839                           ;main.c: 143:     if(ind[4] > 8192){ ind[4] -= 8192; }
  4840  010120  0588               	decf	(_ind+8)& (0+255),w,b
  4841  010122  0E20               	movlw	32
  4842  010124  5989               	subwfb	(_ind+9)& (0+255),w,b
  4843  010126  A0D8               	btfss	status,0,c
  4844  010128  EF98  F080         	goto	i2u82_41
  4845  01012C  EF9A  F080         	goto	i2u82_40
  4846  010130                     i2u82_41:
  4847  010130  EF9E  F080         	goto	i2l1863
  4848  010134                     i2u82_40:
  4849  010134                     
  4850                           ; BSR set to: 5
  4851  010134  0E00               	movlw	0
  4852  010136  5F88               	subwf	(_ind+8)& (0+255),f,b
  4853  010138  0E20               	movlw	32
  4854  01013A  5B89               	subwfb	(_ind+9)& (0+255),f,b
  4855  01013C                     i2l1863:
  4856                           
  4857                           ; BSR set to: 5
  4858                           ;main.c: 145:     ind[5] += incr[potArray][5];
  4859  01013C  5044               	movf	_potArray^(0+1280),w,c
  4860  01013E  0D10               	mullw	16
  4861  010140  0E6A               	movlw	low (_incr+10)
  4862  010142  24F3               	addwf	243,w,c
  4863  010144  6ED9               	movwf	fsr2l,c
  4864  010146  0E05               	movlw	high (_incr+10)
  4865  010148  20F4               	addwfc	prodh,w,c
  4866  01014A  6EDA               	movwf	fsr2h,c
  4867  01014C  50DE               	movf	postinc2,w,c
  4868  01014E  278A               	addwf	(_ind+10)& (0+255),f,b
  4869  010150  50DD               	movf	postdec2,w,c
  4870  010152  238B               	addwfc	(_ind+11)& (0+255),f,b
  4871  010154                     
  4872                           ; BSR set to: 5
  4873                           ;main.c: 146:     if(ind[5] > 8192){ ind[5] -= 8192; }
  4874  010154  058A               	decf	(_ind+10)& (0+255),w,b
  4875  010156  0E20               	movlw	32
  4876  010158  598B               	subwfb	(_ind+11)& (0+255),w,b
  4877  01015A  A0D8               	btfss	status,0,c
  4878  01015C  EFB2  F080         	goto	i2u83_41
  4879  010160  EFB4  F080         	goto	i2u83_40
  4880  010164                     i2u83_41:
  4881  010164  EFB8  F080         	goto	i2l1869
  4882  010168                     i2u83_40:
  4883  010168                     
  4884                           ; BSR set to: 5
  4885  010168  0E00               	movlw	0
  4886  01016A  5F8A               	subwf	(_ind+10)& (0+255),f,b
  4887  01016C  0E20               	movlw	32
  4888  01016E  5B8B               	subwfb	(_ind+11)& (0+255),f,b
  4889  010170                     i2l1869:
  4890                           
  4891                           ; BSR set to: 5
  4892                           ;main.c: 148:     ind[6] += incr[potArray][6];
  4893  010170  5044               	movf	_potArray^(0+1280),w,c
  4894  010172  0D10               	mullw	16
  4895  010174  0E6C               	movlw	low (_incr+12)
  4896  010176  24F3               	addwf	243,w,c
  4897  010178  6ED9               	movwf	fsr2l,c
  4898  01017A  0E05               	movlw	high (_incr+12)
  4899  01017C  20F4               	addwfc	prodh,w,c
  4900  01017E  6EDA               	movwf	fsr2h,c
  4901  010180  50DE               	movf	postinc2,w,c
  4902  010182  278C               	addwf	(_ind+12)& (0+255),f,b
  4903  010184  50DD               	movf	postdec2,w,c
  4904  010186  238D               	addwfc	(_ind+13)& (0+255),f,b
  4905  010188                     
  4906                           ; BSR set to: 5
  4907                           ;main.c: 149:     if(ind[6] > 8192){ ind[6] -= 8192; }
  4908  010188  058C               	decf	(_ind+12)& (0+255),w,b
  4909  01018A  0E20               	movlw	32
  4910  01018C  598D               	subwfb	(_ind+13)& (0+255),w,b
  4911  01018E  A0D8               	btfss	status,0,c
  4912  010190  EFCC  F080         	goto	i2u84_41
  4913  010194  EFCE  F080         	goto	i2u84_40
  4914  010198                     i2u84_41:
  4915  010198  EFD2  F080         	goto	i2l1875
  4916  01019C                     i2u84_40:
  4917  01019C                     
  4918                           ; BSR set to: 5
  4919  01019C  0E00               	movlw	0
  4920  01019E  5F8C               	subwf	(_ind+12)& (0+255),f,b
  4921  0101A0  0E20               	movlw	32
  4922  0101A2  5B8D               	subwfb	(_ind+13)& (0+255),f,b
  4923  0101A4                     i2l1875:
  4924                           
  4925                           ; BSR set to: 5
  4926                           ;main.c: 151:     ind[7] += incr[potArray][7];
  4927  0101A4  5044               	movf	_potArray^(0+1280),w,c
  4928  0101A6  0D10               	mullw	16
  4929  0101A8  0E6E               	movlw	low (_incr+14)
  4930  0101AA  24F3               	addwf	243,w,c
  4931  0101AC  6ED9               	movwf	fsr2l,c
  4932  0101AE  0E05               	movlw	high (_incr+14)
  4933  0101B0  20F4               	addwfc	prodh,w,c
  4934  0101B2  6EDA               	movwf	fsr2h,c
  4935  0101B4  50DE               	movf	postinc2,w,c
  4936  0101B6  278E               	addwf	(_ind+14)& (0+255),f,b
  4937  0101B8  50DD               	movf	postdec2,w,c
  4938  0101BA  238F               	addwfc	(_ind+15)& (0+255),f,b
  4939  0101BC                     
  4940                           ; BSR set to: 5
  4941                           ;main.c: 152:     if(ind[7] > 8192){ ind[7] -= 8192; }
  4942  0101BC  058E               	decf	(_ind+14)& (0+255),w,b
  4943  0101BE  0E20               	movlw	32
  4944  0101C0  598F               	subwfb	(_ind+15)& (0+255),w,b
  4945  0101C2  A0D8               	btfss	status,0,c
  4946  0101C4  EFE6  F080         	goto	i2u85_41
  4947  0101C8  EFE8  F080         	goto	i2u85_40
  4948  0101CC                     i2u85_41:
  4949  0101CC  EFEC  F080         	goto	i2l1881
  4950  0101D0                     i2u85_40:
  4951  0101D0                     
  4952                           ; BSR set to: 5
  4953  0101D0  0E00               	movlw	0
  4954  0101D2  5F8E               	subwf	(_ind+14)& (0+255),f,b
  4955  0101D4  0E20               	movlw	32
  4956  0101D6  5B8F               	subwfb	(_ind+15)& (0+255),f,b
  4957  0101D8                     i2l1881:
  4958                           
  4959                           ; BSR set to: 5
  4960                           ;main.c: 161:     top = (cosTab[ind[0] >> 3] + cosTab[ind[2] >> 3] + cosTab[ind[4] >> 3]
      +                           + cosTab[ind[6] >> 3]) >> 1;
  4961  0101D8  EE21  F18C         	lfsr	2,_ind+12
  4962  0101DC  0061 F378  F501    	movff	postinc2,??_doAudio
  4963  0101E2  0061 F374  F502    	movff	postdec2,??_doAudio+1
  4964  0101E8  90D8               	bcf	status,0,c
  4965  0101EA  3202               	rrcf	(??_doAudio+1)^(0+1280),f,c
  4966  0101EC  3201               	rrcf	??_doAudio^(0+1280),f,c
  4967  0101EE  90D8               	bcf	status,0,c
  4968  0101F0  3202               	rrcf	(??_doAudio+1)^(0+1280),f,c
  4969  0101F2  3201               	rrcf	??_doAudio^(0+1280),f,c
  4970  0101F4  90D8               	bcf	status,0,c
  4971  0101F6  3202               	rrcf	(??_doAudio+1)^(0+1280),f,c
  4972  0101F8  3201               	rrcf	??_doAudio^(0+1280),f,c
  4973  0101FA  90D8               	bcf	status,0,c
  4974  0101FC  3601               	rlcf	??_doAudio^(0+1280),f,c
  4975  0101FE  3602               	rlcf	(??_doAudio+1)^(0+1280),f,c
  4976  010200  0EFF               	movlw	low _cosTab
  4977  010202  2401               	addwf	??_doAudio^(0+1280),w,c
  4978  010204  6EF6               	movwf	tblptrl,c
  4979  010206  0EF7               	movlw	high _cosTab
  4980  010208  2002               	addwfc	(??_doAudio+1)^(0+1280),w,c
  4981  01020A  6EF7               	movwf	tblptrh,c
  4982  01020C                     	if	1	;There are 3 active tblptr bytes
  4983  01020C  6AF8               	clrf	tblptru,c
  4984  01020E  0E00               	movlw	low (__mediumconst shr (0+16))
  4985  010210  22F8               	addwfc	tblptru,f,c
  4986  010212                     	endif
  4987  010212  0009               	tblrd		*+
  4988  010214  0061 F3D4  F503    	movff	tablat,??_doAudio+2
  4989  01021A  0009               	tblrd		*+
  4990  01021C  0061 F3D4  F504    	movff	tablat,??_doAudio+3
  4991  010222  EE21  F188         	lfsr	2,_ind+8
  4992  010226  0061 F378  F505    	movff	postinc2,??_doAudio+4
  4993  01022C  0061 F374  F506    	movff	postdec2,??_doAudio+5
  4994  010232  90D8               	bcf	status,0,c
  4995  010234  3206               	rrcf	(??_doAudio+5)^(0+1280),f,c
  4996  010236  3205               	rrcf	(??_doAudio+4)^(0+1280),f,c
  4997  010238  90D8               	bcf	status,0,c
  4998  01023A  3206               	rrcf	(??_doAudio+5)^(0+1280),f,c
  4999  01023C  3205               	rrcf	(??_doAudio+4)^(0+1280),f,c
  5000  01023E  90D8               	bcf	status,0,c
  5001  010240  3206               	rrcf	(??_doAudio+5)^(0+1280),f,c
  5002  010242  3205               	rrcf	(??_doAudio+4)^(0+1280),f,c
  5003  010244  90D8               	bcf	status,0,c
  5004  010246  3605               	rlcf	(??_doAudio+4)^(0+1280),f,c
  5005  010248  3606               	rlcf	(??_doAudio+5)^(0+1280),f,c
  5006  01024A  0EFF               	movlw	low _cosTab
  5007  01024C  2405               	addwf	(??_doAudio+4)^(0+1280),w,c
  5008  01024E  6EF6               	movwf	tblptrl,c
  5009  010250  0EF7               	movlw	high _cosTab
  5010  010252  2006               	addwfc	(??_doAudio+5)^(0+1280),w,c
  5011  010254  6EF7               	movwf	tblptrh,c
  5012  010256                     	if	1	;There are 3 active tblptr bytes
  5013  010256  6AF8               	clrf	tblptru,c
  5014  010258  0E00               	movlw	low (__mediumconst shr (0+16))
  5015  01025A  22F8               	addwfc	tblptru,f,c
  5016  01025C                     	endif
  5017  01025C  0009               	tblrd		*+
  5018  01025E  0061 F3D4  F507    	movff	tablat,??_doAudio+6
  5019  010264  0009               	tblrd		*+
  5020  010266  0061 F3D4  F508    	movff	tablat,??_doAudio+7
  5021  01026C  EE21  F184         	lfsr	2,_ind+4
  5022  010270  0061 F378  F509    	movff	postinc2,??_doAudio+8
  5023  010276  0061 F374  F50A    	movff	postdec2,??_doAudio+9
  5024  01027C  90D8               	bcf	status,0,c
  5025  01027E  320A               	rrcf	(??_doAudio+9)^(0+1280),f,c
  5026  010280  3209               	rrcf	(??_doAudio+8)^(0+1280),f,c
  5027  010282  90D8               	bcf	status,0,c
  5028  010284  320A               	rrcf	(??_doAudio+9)^(0+1280),f,c
  5029  010286  3209               	rrcf	(??_doAudio+8)^(0+1280),f,c
  5030  010288  90D8               	bcf	status,0,c
  5031  01028A  320A               	rrcf	(??_doAudio+9)^(0+1280),f,c
  5032  01028C  3209               	rrcf	(??_doAudio+8)^(0+1280),f,c
  5033  01028E  90D8               	bcf	status,0,c
  5034  010290  3609               	rlcf	(??_doAudio+8)^(0+1280),f,c
  5035  010292  360A               	rlcf	(??_doAudio+9)^(0+1280),f,c
  5036  010294  0EFF               	movlw	low _cosTab
  5037  010296  2409               	addwf	(??_doAudio+8)^(0+1280),w,c
  5038  010298  6EF6               	movwf	tblptrl,c
  5039  01029A  0EF7               	movlw	high _cosTab
  5040  01029C  200A               	addwfc	(??_doAudio+9)^(0+1280),w,c
  5041  01029E  6EF7               	movwf	tblptrh,c
  5042  0102A0                     	if	1	;There are 3 active tblptr bytes
  5043  0102A0  6AF8               	clrf	tblptru,c
  5044  0102A2  0E00               	movlw	low (__mediumconst shr (0+16))
  5045  0102A4  22F8               	addwfc	tblptru,f,c
  5046  0102A6                     	endif
  5047  0102A6  0009               	tblrd		*+
  5048  0102A8  0061 F3D4  F50B    	movff	tablat,??_doAudio+10
  5049  0102AE  0009               	tblrd		*+
  5050  0102B0  0061 F3D4  F50C    	movff	tablat,??_doAudio+11
  5051  0102B6  0061  F600  F50D   	movff	_ind,??_doAudio+12
  5052  0102BC  0061  F604  F50E   	movff	_ind+1,??_doAudio+13
  5053  0102C2  90D8               	bcf	status,0,c
  5054  0102C4  320E               	rrcf	(??_doAudio+13)^(0+1280),f,c
  5055  0102C6  320D               	rrcf	(??_doAudio+12)^(0+1280),f,c
  5056  0102C8  90D8               	bcf	status,0,c
  5057  0102CA  320E               	rrcf	(??_doAudio+13)^(0+1280),f,c
  5058  0102CC  320D               	rrcf	(??_doAudio+12)^(0+1280),f,c
  5059  0102CE  90D8               	bcf	status,0,c
  5060  0102D0  320E               	rrcf	(??_doAudio+13)^(0+1280),f,c
  5061  0102D2  320D               	rrcf	(??_doAudio+12)^(0+1280),f,c
  5062  0102D4  90D8               	bcf	status,0,c
  5063  0102D6  360D               	rlcf	(??_doAudio+12)^(0+1280),f,c
  5064  0102D8  360E               	rlcf	(??_doAudio+13)^(0+1280),f,c
  5065  0102DA  0EFF               	movlw	low _cosTab
  5066  0102DC  240D               	addwf	(??_doAudio+12)^(0+1280),w,c
  5067  0102DE  6EF6               	movwf	tblptrl,c
  5068  0102E0  0EF7               	movlw	high _cosTab
  5069  0102E2  200E               	addwfc	(??_doAudio+13)^(0+1280),w,c
  5070  0102E4  6EF7               	movwf	tblptrh,c
  5071  0102E6                     	if	1	;There are 3 active tblptr bytes
  5072  0102E6  6AF8               	clrf	tblptru,c
  5073  0102E8  0E00               	movlw	low (__mediumconst shr (0+16))
  5074  0102EA  22F8               	addwfc	tblptru,f,c
  5075  0102EC                     	endif
  5076  0102EC  0009               	tblrd		*+
  5077  0102EE  0061 F3D4  F50F    	movff	tablat,??_doAudio+14
  5078  0102F4  0009               	tblrd		*+
  5079  0102F6  0061 F3D4  F510    	movff	tablat,??_doAudio+15
  5080  0102FC  500B               	movf	(??_doAudio+10)^(0+1280),w,c
  5081  0102FE  260F               	addwf	(??_doAudio+14)^(0+1280),f,c
  5082  010300  500C               	movf	(??_doAudio+11)^(0+1280),w,c
  5083  010302  2210               	addwfc	(??_doAudio+15)^(0+1280),f,c
  5084  010304  5007               	movf	(??_doAudio+6)^(0+1280),w,c
  5085  010306  260F               	addwf	(??_doAudio+14)^(0+1280),f,c
  5086  010308  5008               	movf	(??_doAudio+7)^(0+1280),w,c
  5087  01030A  2210               	addwfc	(??_doAudio+15)^(0+1280),f,c
  5088  01030C  5003               	movf	(??_doAudio+2)^(0+1280),w,c
  5089  01030E  260F               	addwf	(??_doAudio+14)^(0+1280),f,c
  5090  010310  5004               	movf	(??_doAudio+3)^(0+1280),w,c
  5091  010312  2210               	addwfc	(??_doAudio+15)^(0+1280),f,c
  5092  010314  90D8               	bcf	status,0,c
  5093  010316  3010               	rrcf	(??_doAudio+15)^(0+1280),w,c
  5094  010318  6E11               	movwf	(??_doAudio+16)^(0+1280),c
  5095  01031A  300F               	rrcf	(??_doAudio+14)^(0+1280),w,c
  5096  01031C  6E3B               	movwf	_top^(0+1280),c
  5097  01031E  0061  F444  F53C   	movff	??_doAudio+16,_top+1
  5098  010324                     
  5099                           ; BSR set to: 5
  5100                           ;main.c: 163:     bot = (cosTab[ind[1] >> 3] + cosTab[ind[3] >> 3] + cosTab[ind[5] >> 3]
      +                           + cosTab[ind[7] >> 3]) >> 1;
  5101  010324  EE21  F18E         	lfsr	2,_ind+14
  5102  010328  0061 F378  F501    	movff	postinc2,??_doAudio
  5103  01032E  0061 F374  F502    	movff	postdec2,??_doAudio+1
  5104  010334  90D8               	bcf	status,0,c
  5105  010336  3202               	rrcf	(??_doAudio+1)^(0+1280),f,c
  5106  010338  3201               	rrcf	??_doAudio^(0+1280),f,c
  5107  01033A  90D8               	bcf	status,0,c
  5108  01033C  3202               	rrcf	(??_doAudio+1)^(0+1280),f,c
  5109  01033E  3201               	rrcf	??_doAudio^(0+1280),f,c
  5110  010340  90D8               	bcf	status,0,c
  5111  010342  3202               	rrcf	(??_doAudio+1)^(0+1280),f,c
  5112  010344  3201               	rrcf	??_doAudio^(0+1280),f,c
  5113  010346  90D8               	bcf	status,0,c
  5114  010348  3601               	rlcf	??_doAudio^(0+1280),f,c
  5115  01034A  3602               	rlcf	(??_doAudio+1)^(0+1280),f,c
  5116  01034C  0EFF               	movlw	low _cosTab
  5117  01034E  2401               	addwf	??_doAudio^(0+1280),w,c
  5118  010350  6EF6               	movwf	tblptrl,c
  5119  010352  0EF7               	movlw	high _cosTab
  5120  010354  2002               	addwfc	(??_doAudio+1)^(0+1280),w,c
  5121  010356  6EF7               	movwf	tblptrh,c
  5122  010358                     	if	1	;There are 3 active tblptr bytes
  5123  010358  6AF8               	clrf	tblptru,c
  5124  01035A  0E00               	movlw	low (__mediumconst shr (0+16))
  5125  01035C  22F8               	addwfc	tblptru,f,c
  5126  01035E                     	endif
  5127  01035E  0009               	tblrd		*+
  5128  010360  0061 F3D4  F503    	movff	tablat,??_doAudio+2
  5129  010366  0009               	tblrd		*+
  5130  010368  0061 F3D4  F504    	movff	tablat,??_doAudio+3
  5131  01036E  EE21  F18A         	lfsr	2,_ind+10
  5132  010372  0061 F378  F505    	movff	postinc2,??_doAudio+4
  5133  010378  0061 F374  F506    	movff	postdec2,??_doAudio+5
  5134  01037E  90D8               	bcf	status,0,c
  5135  010380  3206               	rrcf	(??_doAudio+5)^(0+1280),f,c
  5136  010382  3205               	rrcf	(??_doAudio+4)^(0+1280),f,c
  5137  010384  90D8               	bcf	status,0,c
  5138  010386  3206               	rrcf	(??_doAudio+5)^(0+1280),f,c
  5139  010388  3205               	rrcf	(??_doAudio+4)^(0+1280),f,c
  5140  01038A  90D8               	bcf	status,0,c
  5141  01038C  3206               	rrcf	(??_doAudio+5)^(0+1280),f,c
  5142  01038E  3205               	rrcf	(??_doAudio+4)^(0+1280),f,c
  5143  010390  90D8               	bcf	status,0,c
  5144  010392  3605               	rlcf	(??_doAudio+4)^(0+1280),f,c
  5145  010394  3606               	rlcf	(??_doAudio+5)^(0+1280),f,c
  5146  010396  0EFF               	movlw	low _cosTab
  5147  010398  2405               	addwf	(??_doAudio+4)^(0+1280),w,c
  5148  01039A  6EF6               	movwf	tblptrl,c
  5149  01039C  0EF7               	movlw	high _cosTab
  5150  01039E  2006               	addwfc	(??_doAudio+5)^(0+1280),w,c
  5151  0103A0  6EF7               	movwf	tblptrh,c
  5152  0103A2                     	if	1	;There are 3 active tblptr bytes
  5153  0103A2  6AF8               	clrf	tblptru,c
  5154  0103A4  0E00               	movlw	low (__mediumconst shr (0+16))
  5155  0103A6  22F8               	addwfc	tblptru,f,c
  5156  0103A8                     	endif
  5157  0103A8  0009               	tblrd		*+
  5158  0103AA  0061 F3D4  F507    	movff	tablat,??_doAudio+6
  5159  0103B0  0009               	tblrd		*+
  5160  0103B2  0061 F3D4  F508    	movff	tablat,??_doAudio+7
  5161  0103B8  EE21  F186         	lfsr	2,_ind+6
  5162  0103BC  0061 F378  F509    	movff	postinc2,??_doAudio+8
  5163  0103C2  0061 F374  F50A    	movff	postdec2,??_doAudio+9
  5164  0103C8  90D8               	bcf	status,0,c
  5165  0103CA  320A               	rrcf	(??_doAudio+9)^(0+1280),f,c
  5166  0103CC  3209               	rrcf	(??_doAudio+8)^(0+1280),f,c
  5167  0103CE  90D8               	bcf	status,0,c
  5168  0103D0  320A               	rrcf	(??_doAudio+9)^(0+1280),f,c
  5169  0103D2  3209               	rrcf	(??_doAudio+8)^(0+1280),f,c
  5170  0103D4  90D8               	bcf	status,0,c
  5171  0103D6  320A               	rrcf	(??_doAudio+9)^(0+1280),f,c
  5172  0103D8  3209               	rrcf	(??_doAudio+8)^(0+1280),f,c
  5173  0103DA  90D8               	bcf	status,0,c
  5174  0103DC  3609               	rlcf	(??_doAudio+8)^(0+1280),f,c
  5175  0103DE  360A               	rlcf	(??_doAudio+9)^(0+1280),f,c
  5176  0103E0  0EFF               	movlw	low _cosTab
  5177  0103E2  2409               	addwf	(??_doAudio+8)^(0+1280),w,c
  5178  0103E4  6EF6               	movwf	tblptrl,c
  5179  0103E6  0EF7               	movlw	high _cosTab
  5180  0103E8  200A               	addwfc	(??_doAudio+9)^(0+1280),w,c
  5181  0103EA  6EF7               	movwf	tblptrh,c
  5182  0103EC                     	if	1	;There are 3 active tblptr bytes
  5183  0103EC  6AF8               	clrf	tblptru,c
  5184  0103EE  0E00               	movlw	low (__mediumconst shr (0+16))
  5185  0103F0  22F8               	addwfc	tblptru,f,c
  5186  0103F2                     	endif
  5187  0103F2  0009               	tblrd		*+
  5188  0103F4  0061 F3D4  F50B    	movff	tablat,??_doAudio+10
  5189  0103FA  0009               	tblrd		*+
  5190  0103FC  0061 F3D4  F50C    	movff	tablat,??_doAudio+11
  5191  010402  EE21  F182         	lfsr	2,_ind+2
  5192  010406  0061 F378  F50D    	movff	postinc2,??_doAudio+12
  5193  01040C  0061 F374  F50E    	movff	postdec2,??_doAudio+13
  5194  010412  90D8               	bcf	status,0,c
  5195  010414  320E               	rrcf	(??_doAudio+13)^(0+1280),f,c
  5196  010416  320D               	rrcf	(??_doAudio+12)^(0+1280),f,c
  5197  010418  90D8               	bcf	status,0,c
  5198  01041A  320E               	rrcf	(??_doAudio+13)^(0+1280),f,c
  5199  01041C  320D               	rrcf	(??_doAudio+12)^(0+1280),f,c
  5200  01041E  90D8               	bcf	status,0,c
  5201  010420  320E               	rrcf	(??_doAudio+13)^(0+1280),f,c
  5202  010422  320D               	rrcf	(??_doAudio+12)^(0+1280),f,c
  5203  010424  90D8               	bcf	status,0,c
  5204  010426  360D               	rlcf	(??_doAudio+12)^(0+1280),f,c
  5205  010428  360E               	rlcf	(??_doAudio+13)^(0+1280),f,c
  5206  01042A  0EFF               	movlw	low _cosTab
  5207  01042C  240D               	addwf	(??_doAudio+12)^(0+1280),w,c
  5208  01042E  6EF6               	movwf	tblptrl,c
  5209  010430  0EF7               	movlw	high _cosTab
  5210  010432  200E               	addwfc	(??_doAudio+13)^(0+1280),w,c
  5211  010434  6EF7               	movwf	tblptrh,c
  5212  010436                     	if	1	;There are 3 active tblptr bytes
  5213  010436  6AF8               	clrf	tblptru,c
  5214  010438  0E00               	movlw	low (__mediumconst shr (0+16))
  5215  01043A  22F8               	addwfc	tblptru,f,c
  5216  01043C                     	endif
  5217  01043C  0009               	tblrd		*+
  5218  01043E  0061 F3D4  F50F    	movff	tablat,??_doAudio+14
  5219  010444  0009               	tblrd		*+
  5220  010446  0061 F3D4  F510    	movff	tablat,??_doAudio+15
  5221  01044C  500B               	movf	(??_doAudio+10)^(0+1280),w,c
  5222  01044E  260F               	addwf	(??_doAudio+14)^(0+1280),f,c
  5223  010450  500C               	movf	(??_doAudio+11)^(0+1280),w,c
  5224  010452  2210               	addwfc	(??_doAudio+15)^(0+1280),f,c
  5225  010454  5007               	movf	(??_doAudio+6)^(0+1280),w,c
  5226  010456  260F               	addwf	(??_doAudio+14)^(0+1280),f,c
  5227  010458  5008               	movf	(??_doAudio+7)^(0+1280),w,c
  5228  01045A  2210               	addwfc	(??_doAudio+15)^(0+1280),f,c
  5229  01045C  5003               	movf	(??_doAudio+2)^(0+1280),w,c
  5230  01045E  260F               	addwf	(??_doAudio+14)^(0+1280),f,c
  5231  010460  5004               	movf	(??_doAudio+3)^(0+1280),w,c
  5232  010462  2210               	addwfc	(??_doAudio+15)^(0+1280),f,c
  5233  010464  90D8               	bcf	status,0,c
  5234  010466  3010               	rrcf	(??_doAudio+15)^(0+1280),w,c
  5235  010468  6E11               	movwf	(??_doAudio+16)^(0+1280),c
  5236  01046A  300F               	rrcf	(??_doAudio+14)^(0+1280),w,c
  5237  01046C  6FB4               	movwf	_bot& (0+255),b
  5238  01046E  0061  F444  F5B5   	movff	??_doAudio+16,_bot+1
  5239                           
  5240                           ;main.c: 165:     top += bot;
  5241  010474  51B4               	movf	_bot& (0+255),w,b
  5242  010476  263B               	addwf	_top^(0+1280),f,c
  5243  010478  51B5               	movf	(_bot+1)& (0+255),w,b
  5244  01047A  223C               	addwfc	(_top+1)^(0+1280),f,c
  5245  01047C                     
  5246                           ; BSR set to: 5
  5247                           ;main.c: 195:     top += (topDel[delCounter]) >> 1;
  5248  01047C  90D8               	bcf	status,0,c
  5249  01047E  3439               	rlcf	_delCounter^(0+1280),w,c
  5250  010480  6ED9               	movwf	fsr2l,c
  5251  010482  343A               	rlcf	(_delCounter+1)^(0+1280),w,c
  5252  010484  6EDA               	movwf	fsr2h,c
  5253  010486  0E11               	movlw	low _topDel
  5254  010488  26D9               	addwf	fsr2l,f,c
  5255  01048A  0E09               	movlw	high _topDel
  5256  01048C  22DA               	addwfc	fsr2h,f,c
  5257  01048E  0061 F378  F501    	movff	postinc2,??_doAudio
  5258  010494  0061 F374  F502    	movff	postdec2,??_doAudio+1
  5259  01049A  90D8               	bcf	status,0,c
  5260  01049C  3002               	rrcf	(??_doAudio+1)^(0+1280),w,c
  5261  01049E  6E04               	movwf	(??_doAudio+3)^(0+1280),c
  5262  0104A0  3001               	rrcf	??_doAudio^(0+1280),w,c
  5263  0104A2  6E03               	movwf	(??_doAudio+2)^(0+1280),c
  5264  0104A4  5003               	movf	(??_doAudio+2)^(0+1280),w,c
  5265  0104A6  263B               	addwf	_top^(0+1280),f,c
  5266  0104A8  5004               	movf	(??_doAudio+3)^(0+1280),w,c
  5267  0104AA  223C               	addwfc	(_top+1)^(0+1280),f,c
  5268  0104AC                     
  5269                           ; BSR set to: 5
  5270                           ;main.c: 196:     topDel[delCounter] = top;
  5271  0104AC  90D8               	bcf	status,0,c
  5272  0104AE  3439               	rlcf	_delCounter^(0+1280),w,c
  5273  0104B0  6ED9               	movwf	fsr2l,c
  5274  0104B2  343A               	rlcf	(_delCounter+1)^(0+1280),w,c
  5275  0104B4  6EDA               	movwf	fsr2h,c
  5276  0104B6  0E11               	movlw	low _topDel
  5277  0104B8  26D9               	addwf	fsr2l,f,c
  5278  0104BA  0E09               	movlw	high _topDel
  5279  0104BC  22DA               	addwfc	fsr2h,f,c
  5280  0104BE  0061  F4EC  F4DE   	movff	_top,postinc2
  5281  0104C4  0061  F4F0  F4DD   	movff	_top+1,postdec2
  5282  0104CA                     
  5283                           ; BSR set to: 5
  5284                           ;main.c: 198:     top += (botDel[botCounter]) >> 1;
  5285  0104CA  90D8               	bcf	status,0,c
  5286  0104CC  3437               	rlcf	_botCounter^(0+1280),w,c
  5287  0104CE  6ED9               	movwf	fsr2l,c
  5288  0104D0  3438               	rlcf	(_botCounter+1)^(0+1280),w,c
  5289  0104D2  6EDA               	movwf	fsr2h,c
  5290  0104D4  0EF1               	movlw	low _botDel
  5291  0104D6  26D9               	addwf	fsr2l,f,c
  5292  0104D8  0E05               	movlw	high _botDel
  5293  0104DA  22DA               	addwfc	fsr2h,f,c
  5294  0104DC  0061 F378  F501    	movff	postinc2,??_doAudio
  5295  0104E2  0061 F374  F502    	movff	postdec2,??_doAudio+1
  5296  0104E8  90D8               	bcf	status,0,c
  5297  0104EA  3002               	rrcf	(??_doAudio+1)^(0+1280),w,c
  5298  0104EC  6E04               	movwf	(??_doAudio+3)^(0+1280),c
  5299  0104EE  3001               	rrcf	??_doAudio^(0+1280),w,c
  5300  0104F0  6E03               	movwf	(??_doAudio+2)^(0+1280),c
  5301  0104F2  5003               	movf	(??_doAudio+2)^(0+1280),w,c
  5302  0104F4  263B               	addwf	_top^(0+1280),f,c
  5303  0104F6  5004               	movf	(??_doAudio+3)^(0+1280),w,c
  5304  0104F8  223C               	addwfc	(_top+1)^(0+1280),f,c
  5305  0104FA                     
  5306                           ; BSR set to: 5
  5307                           ;main.c: 201:     botDel[botCounter] = top;
  5308  0104FA  90D8               	bcf	status,0,c
  5309  0104FC  3437               	rlcf	_botCounter^(0+1280),w,c
  5310  0104FE  6ED9               	movwf	fsr2l,c
  5311  010500  3438               	rlcf	(_botCounter+1)^(0+1280),w,c
  5312  010502  6EDA               	movwf	fsr2h,c
  5313  010504  0EF1               	movlw	low _botDel
  5314  010506  26D9               	addwf	fsr2l,f,c
  5315  010508  0E05               	movlw	high _botDel
  5316  01050A  22DA               	addwfc	fsr2h,f,c
  5317  01050C  0061  F4EC  F4DE   	movff	_top,postinc2
  5318  010512  0061  F4F0  F4DD   	movff	_top+1,postdec2
  5319  010518                     
  5320                           ; BSR set to: 5
  5321                           ;main.c: 207:     delCounter++;
  5322  010518  4A39               	infsnz	_delCounter^(0+1280),f,c
  5323  01051A  2A3A               	incf	(_delCounter+1)^(0+1280),f,c
  5324  01051C                     
  5325                           ; BSR set to: 5
  5326                           ;main.c: 208:     if(delCounter >= 400){ delCounter = 0; }
  5327  01051C  0E90               	movlw	144
  5328  01051E  5C39               	subwf	_delCounter^(0+1280),w,c
  5329  010520  0E01               	movlw	1
  5330  010522  583A               	subwfb	(_delCounter+1)^(0+1280),w,c
  5331  010524  A0D8               	btfss	status,0,c
  5332  010526  EF97  F082         	goto	i2u86_41
  5333  01052A  EF99  F082         	goto	i2u86_40
  5334  01052E                     i2u86_41:
  5335  01052E  EF9D  F082         	goto	i2l1899
  5336  010532                     i2u86_40:
  5337  010532                     
  5338                           ; BSR set to: 5
  5339  010532  0E00               	movlw	0
  5340  010534  6E3A               	movwf	(_delCounter+1)^(0+1280),c
  5341  010536  0E00               	movlw	0
  5342  010538  6E39               	movwf	_delCounter^(0+1280),c
  5343  01053A                     i2l1899:
  5344                           
  5345                           ; BSR set to: 5
  5346                           ;main.c: 209:     botCounter++;
  5347  01053A  4A37               	infsnz	_botCounter^(0+1280),f,c
  5348  01053C  2A38               	incf	(_botCounter+1)^(0+1280),f,c
  5349  01053E                     
  5350                           ; BSR set to: 5
  5351                           ;main.c: 210:     if(botCounter >= 247){ botCounter = 0; }
  5352  01053E  5038               	movf	(_botCounter+1)^(0+1280),w,c
  5353  010540  E109               	bnz	i2u87_40
  5354  010542  0EF7               	movlw	247
  5355  010544  5C37               	subwf	_botCounter^(0+1280),w,c
  5356  010546  A0D8               	btfss	status,0,c
  5357  010548  EFA8  F082         	goto	i2u87_41
  5358  01054C  EFAA  F082         	goto	i2u87_40
  5359  010550                     i2u87_41:
  5360  010550  EFAE  F082         	goto	i2l538
  5361  010554                     i2u87_40:
  5362  010554                     
  5363                           ; BSR set to: 5
  5364  010554  0E00               	movlw	0
  5365  010556  6E38               	movwf	(_botCounter+1)^(0+1280),c
  5366  010558  0E00               	movlw	0
  5367  01055A  6E37               	movwf	_botCounter^(0+1280),c
  5368  01055C                     i2l538:
  5369                           
  5370                           ; BSR set to: 5
  5371                           ;main.c: 214:     if(!dacOff){
  5372  01055C  503F               	movf	_dacOff^(0+1280),w,c
  5373  01055E  A4D8               	btfss	status,2,c
  5374  010560  EFB4  F082         	goto	i2u88_41
  5375  010564  EFB6  F082         	goto	i2u88_40
  5376  010568                     i2u88_41:
  5377  010568  EFB9  F082         	goto	i2l1907
  5378  01056C                     i2u88_40:
  5379  01056C                     
  5380                           ; BSR set to: 5
  5381                           ;main.c: 215:         DAC1DATL = (top >> 8) & 255;
  5382  01056C  503C               	movf	(_top+1)^(0+1280),w,c
  5383  01056E  0100               	movlb	0	; () banked
  5384  010570  6F7D               	movwf	125,b	;volatile
  5385  010572                     i2l1907:
  5386                           
  5387                           ;main.c: 237:     if(freqCounter < freqIncr){
  5388  010572  0105               	movlb	5	; () banked
  5389  010574  51B2               	movf	_freqIncr& (0+255),w,b
  5390  010576  6E01               	movwf	??_doAudio^(0+1280),c
  5391  010578  51B3               	movf	(_freqIncr+1)& (0+255),w,b
  5392  01057A  6E02               	movwf	(??_doAudio+1)^(0+1280),c
  5393  01057C  6A03               	clrf	(??_doAudio+2)^(0+1280),c
  5394  01057E  6A04               	clrf	(??_doAudio+3)^(0+1280),c
  5395  010580  5001               	movf	??_doAudio^(0+1280),w,c
  5396  010582  5D9C               	subwf	_freqCounter& (0+255),w,b
  5397  010584  5002               	movf	(??_doAudio+1)^(0+1280),w,c
  5398  010586  599D               	subwfb	(_freqCounter+1)& (0+255),w,b
  5399  010588  5003               	movf	(??_doAudio+2)^(0+1280),w,c
  5400  01058A  599E               	subwfb	(_freqCounter+2)& (0+255),w,b
  5401  01058C  5004               	movf	(??_doAudio+3)^(0+1280),w,c
  5402  01058E  599F               	subwfb	(_freqCounter+3)& (0+255),w,b
  5403  010590  B0D8               	btfsc	status,0,c
  5404  010592  EFCD  F082         	goto	i2u89_41
  5405  010596  EFCF  F082         	goto	i2u89_40
  5406  01059A                     i2u89_41:
  5407  01059A  EFD7  F082         	goto	i2l540
  5408  01059E                     i2u89_40:
  5409  01059E                     
  5410                           ; BSR set to: 5
  5411                           ;main.c: 238:         freqCounter += ((uint32_t)4096 << 16);
  5412  01059E  0E00               	movlw	0
  5413  0105A0  279C               	addwf	_freqCounter& (0+255),f,b
  5414  0105A2  0E00               	movlw	0
  5415  0105A4  239D               	addwfc	(_freqCounter+1)& (0+255),f,b
  5416  0105A6  0E00               	movlw	0
  5417  0105A8  239E               	addwfc	(_freqCounter+2)& (0+255),f,b
  5418  0105AA  0E10               	movlw	16
  5419  0105AC  239F               	addwfc	(_freqCounter+3)& (0+255),f,b
  5420  0105AE                     i2l540:
  5421                           
  5422                           ; BSR set to: 5
  5423                           ;main.c: 240:     freqCounter -= freqIncr;
  5424  0105AE  51B2               	movf	_freqIncr& (0+255),w,b
  5425  0105B0  6E01               	movwf	??_doAudio^(0+1280),c
  5426  0105B2  51B3               	movf	(_freqIncr+1)& (0+255),w,b
  5427  0105B4  6E02               	movwf	(??_doAudio+1)^(0+1280),c
  5428  0105B6  6A03               	clrf	(??_doAudio+2)^(0+1280),c
  5429  0105B8  6A04               	clrf	(??_doAudio+3)^(0+1280),c
  5430  0105BA  5001               	movf	??_doAudio^(0+1280),w,c
  5431  0105BC  5F9C               	subwf	_freqCounter& (0+255),f,b
  5432  0105BE  5002               	movf	(??_doAudio+1)^(0+1280),w,c
  5433  0105C0  5B9D               	subwfb	(_freqCounter+1)& (0+255),f,b
  5434  0105C2  5003               	movf	(??_doAudio+2)^(0+1280),w,c
  5435  0105C4  5B9E               	subwfb	(_freqCounter+2)& (0+255),f,b
  5436  0105C6  5004               	movf	(??_doAudio+3)^(0+1280),w,c
  5437  0105C8  5B9F               	subwfb	(_freqCounter+3)& (0+255),f,b
  5438                           
  5439                           ;main.c: 242:     clockCounter++;
  5440  0105CA  0E01               	movlw	1
  5441  0105CC  27E0               	addwf	_clockCounter& (0+255),f,b
  5442  0105CE  0E00               	movlw	0
  5443  0105D0  23E1               	addwfc	(_clockCounter+1)& (0+255),f,b
  5444  0105D2  23E2               	addwfc	(_clockCounter+2)& (0+255),f,b
  5445  0105D4  23E3               	addwfc	(_clockCounter+3)& (0+255),f,b
  5446  0105D6                     
  5447                           ; BSR set to: 5
  5448                           ;main.c: 244:     if(CM1CON0bits.C1OUT && !cm1){
  5449  0105D6  0100               	movlb	0	; () banked
  5450  0105D8  AD70               	btfss	112,6,b	;volatile
  5451  0105DA  EFF1  F082         	goto	i2u90_41
  5452  0105DE  EFF3  F082         	goto	i2u90_40
  5453  0105E2                     i2u90_41:
  5454  0105E2  EF18  F083         	goto	i2l1925
  5455  0105E6                     i2u90_40:
  5456  0105E6                     
  5457                           ; BSR set to: 0
  5458  0105E6  5043               	movf	_cm1^(0+1280),w,c
  5459  0105E8  A4D8               	btfss	status,2,c
  5460  0105EA  EFF9  F082         	goto	i2u91_41
  5461  0105EE  EFFB  F082         	goto	i2u91_40
  5462  0105F2                     i2u91_41:
  5463  0105F2  EF18  F083         	goto	i2l1925
  5464  0105F6                     i2u91_40:
  5465  0105F6                     
  5466                           ; BSR set to: 0
  5467                           ;main.c: 245:         counterSave = clockCounter;
  5468  0105F6  C5E0  F5E6         	movff	_clockCounter,_counterSave
  5469  0105FA  C5E1  F5E7         	movff	_clockCounter+1,_counterSave+1
  5470  0105FE  C5E2  F5E8         	movff	_clockCounter+2,_counterSave+2
  5471  010602  C5E3  F5E9         	movff	_clockCounter+3,_counterSave+3
  5472  010606                     
  5473                           ; BSR set to: 0
  5474                           ;main.c: 246:         clockCounter = 1;
  5475  010606  0E01               	movlw	1
  5476  010608  0105               	movlb	5	; () banked
  5477  01060A  6FE0               	movwf	_clockCounter& (0+255),b
  5478  01060C  0E00               	movlw	0
  5479  01060E  6FE1               	movwf	(_clockCounter+1)& (0+255),b
  5480  010610  0E00               	movlw	0
  5481  010612  6FE2               	movwf	(_clockCounter+2)& (0+255),b
  5482  010614  0E00               	movlw	0
  5483  010616  6FE3               	movwf	(_clockCounter+3)& (0+255),b
  5484  010618                     
  5485                           ; BSR set to: 5
  5486                           ;main.c: 249:         shift2++;
  5487  010618  2A46               	incf	_shift2^(0+1280),f,c
  5488  01061A                     
  5489                           ; BSR set to: 5
  5490                           ;main.c: 250:         if(shift2 == 7){ shift2 = 0; }
  5491  01061A  0E07               	movlw	7
  5492  01061C  1846               	xorwf	_shift2^(0+1280),w,c
  5493  01061E  A4D8               	btfss	status,2,c
  5494  010620  EF14  F083         	goto	i2u92_41
  5495  010624  EF16  F083         	goto	i2u92_40
  5496  010628                     i2u92_41:
  5497  010628  EF18  F083         	goto	i2l1925
  5498  01062C                     i2u92_40:
  5499  01062C                     
  5500                           ; BSR set to: 5
  5501  01062C  0E00               	movlw	0
  5502  01062E  6E46               	movwf	_shift2^(0+1280),c
  5503  010630                     i2l1925:
  5504                           
  5505                           ;main.c: 264:     cm1 = CM1CON0bits.C1OUT;
  5506  010630  0100               	movlb	0	; () banked
  5507  010632  0E00               	movlw	0
  5508  010634  BD70               	btfsc	112,6,b	;volatile
  5509  010636  0E01               	movlw	1
  5510  010638  6E43               	movwf	_cm1^(0+1280),c
  5511  01063A                     
  5512                           ; BSR set to: 0
  5513                           ;main.c: 266:     LATBbits.LATB5 = CM1CON0bits.C1OUT;
  5514  01063A  AD70               	btfss	112,6,b	;volatile
  5515  01063C  D002               	bra	i2u93_45
  5516  01063E  8ABF               	bsf	191,5,c	;volatile
  5517  010640  D001               	bra	i2u93_47
  5518  010642                     i2u93_45:
  5519  010642  9ABF               	bcf	191,5,c	;volatile
  5520  010644                     i2u93_47:
  5521  010644  0012               	return		;funcret
  5522  010646                     __end_of_doAudio:
  5523                           	opt callstack 0
  5524                           
  5525                           ;
  5526                           ; Interrupt Vector Table @ 0x8
  5527                           ;
  5528                           
  5529                           	psect	ivt0x8
  5530  000008                     __pivt0x8:
  5531                           	opt callstack 0
  5532  000008                     ivt0x8_base:
  5533                           	opt callstack 0
  5534                           
  5535                           ; high-priority vector
  5536  000008  EFD9  F088         	goto	_INTERRUPT_InterruptManager
  5537  000018                     	org	16
  5538                           
  5539                           ; low-priority vector
  5540  000018  00FF               	reset	
  5541                           
  5542                           	psect	text30
  5543  000000                     __ptext30:
  5544                           	opt callstack 0
  5545  000000                     
  5546                           	psect	rparam
  5547  0000                     tosu	equ	0x4FF
  5548                           tosh	equ	0x4FE
  5549                           tosl	equ	0x4FD
  5550                           stkptr	equ	0x4FC
  5551                           pclatu	equ	0x4FB
  5552                           pclath	equ	0x4FA
  5553                           pcl	equ	0x4F9
  5554                           tblptru	equ	0x4F8
  5555                           tblptrh	equ	0x4F7
  5556                           tblptrl	equ	0x4F6
  5557                           tablat	equ	0x4F5
  5558                           prodh	equ	0x4F4
  5559                           prodl	equ	0x4F3
  5560                           indf0	equ	0x4EF
  5561                           postinc0	equ	0x4EE
  5562                           postdec0	equ	0x4ED
  5563                           preinc0	equ	0x4EC
  5564                           plusw0	equ	0x4EB
  5565                           fsr0h	equ	0x4EA
  5566                           fsr0l	equ	0x4E9
  5567                           wreg	equ	0x4E8
  5568                           indf1	equ	0x4E7
  5569                           postinc1	equ	0x4E6
  5570                           postdec1	equ	0x4E5
  5571                           preinc1	equ	0x4E4
  5572                           plusw1	equ	0x4E3
  5573                           fsr1h	equ	0x4E2
  5574                           fsr1l	equ	0x4E1
  5575                           bsr	equ	0x4E0
  5576                           indf2	equ	0x4DF
  5577                           postinc2	equ	0x4DE
  5578                           postdec2	equ	0x4DD
  5579                           preinc2	equ	0x4DC
  5580                           plusw2	equ	0x4DB
  5581                           fsr2h	equ	0x4DA
  5582                           fsr2l	equ	0x4D9
  5583                           status	equ	0x4D8


Data Sizes:
    Strings     0
    Constant    2048
    Data        11
    BSS         1717
    Persistent  8
    Stack       0

Auto Spaces:
    Space          Size  Autos    Used
    COMRAM           95     50      73
    BANK5           160     32     145
    BANK6           256      0       0
    BANK7           256      0       0
    BANK8           256      0       0
    BANK9           256      0       0
    BANK10          256      0       0
    BANK11          256      0       0
    BANK12          256      0       0
    BANK13          256      0       0
    BANK14          256      0       0
    BANK15          256      0       0
    BANK16          256      0       0
    BANK17          256      0       0
    BANK18          256      0       0
    BANK19          256      0       0
    BANK20          256      0       0
    BANK21          256      0       0
    BANK22          256      0       0
    BANK23          256      0       0
    BANK24          256      0       0
    BANK25          256      0       0
    BANK26          256      0       0
    BANK27          256      0       0
    BANK28          256      0       0
    BANK29          256      0       0
    BANK30          256      0       0
    BANK31          256      0       0
    BANK32          256      0       0
    BANK33          256      0       0
    BANK34          256      0       0
    BANK35          256      0       0
    BANK36          256      0       0

Pointer List with Targets:

    TMR1_SetInterruptHandler@InterruptHandler	PTR FTN()void  size(3) Largest target is 1
		 -> doAudio(), TMR1_DefaultInterruptHandler(), 

    TMR1_InterruptHandler	PTR FTN()void  size(3) Largest target is 1
		 -> doAudio(), Absolute function(), TMR1_DefaultInterruptHandler(), 


Critical Paths under _main in COMRAM

    _readPot->___almod
    _rand->___omul
    ___almod->_rand
    _SYSTEM_Initialize->_TMR1_Initialize
    _TMR1_Initialize->_TMR1_SetInterruptHandler

Critical Paths under _INTERRUPT_InterruptManager in COMRAM

    _TMR1_CallBack->_doAudio

Critical Paths under _main in BANK5

    _main->_readPot
    _readPot->___almod
    ___almod->_rand

Critical Paths under _INTERRUPT_InterruptManager in BANK5

    None.

Critical Paths under _main in BANK6

    None.

Critical Paths under _INTERRUPT_InterruptManager in BANK6

    None.

Critical Paths under _main in BANK7

    None.

Critical Paths under _INTERRUPT_InterruptManager in BANK7

    None.

Critical Paths under _main in BANK8

    None.

Critical Paths under _INTERRUPT_InterruptManager in BANK8

    None.

Critical Paths under _main in BANK9

    None.

Critical Paths under _INTERRUPT_InterruptManager in BANK9

    None.

Critical Paths under _main in BANK10

    None.

Critical Paths under _INTERRUPT_InterruptManager in BANK10

    None.

Critical Paths under _main in BANK11

    None.

Critical Paths under _INTERRUPT_InterruptManager in BANK11

    None.

Critical Paths under _main in BANK12

    None.

Critical Paths under _INTERRUPT_InterruptManager in BANK12

    None.

Critical Paths under _main in BANK13

    None.

Critical Paths under _INTERRUPT_InterruptManager in BANK13

    None.

Critical Paths under _main in BANK14

    None.

Critical Paths under _INTERRUPT_InterruptManager in BANK14

    None.

Critical Paths under _main in BANK15

    None.

Critical Paths under _INTERRUPT_InterruptManager in BANK15

    None.

Critical Paths under _main in BANK16

    None.

Critical Paths under _INTERRUPT_InterruptManager in BANK16

    None.

Critical Paths under _main in BANK17

    None.

Critical Paths under _INTERRUPT_InterruptManager in BANK17

    None.

Critical Paths under _main in BANK18

    None.

Critical Paths under _INTERRUPT_InterruptManager in BANK18

    None.

Critical Paths under _main in BANK19

    None.

Critical Paths under _INTERRUPT_InterruptManager in BANK19

    None.

Critical Paths under _main in BANK20

    None.

Critical Paths under _INTERRUPT_InterruptManager in BANK20

    None.

Critical Paths under _main in BANK21

    None.

Critical Paths under _INTERRUPT_InterruptManager in BANK21

    None.

Critical Paths under _main in BANK22

    None.

Critical Paths under _INTERRUPT_InterruptManager in BANK22

    None.

Critical Paths under _main in BANK23

    None.

Critical Paths under _INTERRUPT_InterruptManager in BANK23

    None.

Critical Paths under _main in BANK24

    None.

Critical Paths under _INTERRUPT_InterruptManager in BANK24

    None.

Critical Paths under _main in BANK25

    None.

Critical Paths under _INTERRUPT_InterruptManager in BANK25

    None.

Critical Paths under _main in BANK26

    None.

Critical Paths under _INTERRUPT_InterruptManager in BANK26

    None.

Critical Paths under _main in BANK27

    None.

Critical Paths under _INTERRUPT_InterruptManager in BANK27

    None.

Critical Paths under _main in BANK28

    None.

Critical Paths under _INTERRUPT_InterruptManager in BANK28

    None.

Critical Paths under _main in BANK29

    None.

Critical Paths under _INTERRUPT_InterruptManager in BANK29

    None.

Critical Paths under _main in BANK30

    None.

Critical Paths under _INTERRUPT_InterruptManager in BANK30

    None.

Critical Paths under _main in BANK31

    None.

Critical Paths under _INTERRUPT_InterruptManager in BANK31

    None.

Critical Paths under _main in BANK32

    None.

Critical Paths under _INTERRUPT_InterruptManager in BANK32

    None.

Critical Paths under _main in BANK33

    None.

Critical Paths under _INTERRUPT_InterruptManager in BANK33

    None.

Critical Paths under _main in BANK34

    None.

Critical Paths under _INTERRUPT_InterruptManager in BANK34

    None.

Critical Paths under _main in BANK35

    None.

Critical Paths under _INTERRUPT_InterruptManager in BANK35

    None.

Critical Paths under _main in BANK36

    None.

Critical Paths under _INTERRUPT_InterruptManager in BANK36

    None.

Call Graph Tables:

 ---------------------------------------------------------------------------------
 (Depth) Function   	        Calls       Base Space   Used Autos Params    Refs
 ---------------------------------------------------------------------------------
 (0) _main                                                 0     0      0    3837
                  _SYSTEM_Initialize
           _TMR1_SetInterruptHandler
                            _readPot
 ---------------------------------------------------------------------------------
 (1) _readPot                                             16    16      0    3489
                                             16 BANK5     16    16      0
           _ADCC_GetConversionResult
              _ADCC_IsConversionDone
               _ADCC_StartConversion
                            ___almod
                            ___awmod
                            ___lldiv
                             ___lmul
                               _rand
 ---------------------------------------------------------------------------------
 (2) _rand                                                10     8      2     456
                                             46 COMRAM     2     0      2
                                              0 BANK5      8     8      0
                             ___omul
 ---------------------------------------------------------------------------------
 (3) ___omul                                              24     8     16     456
                                             22 COMRAM    24     8     16
 ---------------------------------------------------------------------------------
 (2) ___lmul                                              12     4      8     996
                                             22 COMRAM    12     4      8
 ---------------------------------------------------------------------------------
 (2) ___lldiv                                             13     5      8     421
                                             22 COMRAM    13     5      8
 ---------------------------------------------------------------------------------
 (2) ___awmod                                              6     2      4     613
                                             22 COMRAM     6     2      4
 ---------------------------------------------------------------------------------
 (2) ___almod                                             10     2      8     613
                                             48 COMRAM     2     2      0
                                              8 BANK5      8     0      8
                               _rand (ARG)
 ---------------------------------------------------------------------------------
 (2) _ADCC_StartConversion                                 1     1      0      31
                                             22 COMRAM     1     1      0
 ---------------------------------------------------------------------------------
 (2) _ADCC_IsConversionDone                                0     0      0       0
 ---------------------------------------------------------------------------------
 (2) _ADCC_GetConversionResult                             4     2      2       0
                                             22 COMRAM     4     2      2
 ---------------------------------------------------------------------------------
 (1) _SYSTEM_Initialize                                    0     0      0     174
                    _ADCC_Initialize
                    _CMP1_Initialize
                    _CMP2_Initialize
                    _DAC1_Initialize
                     _FVR_Initialize
               _INTERRUPT_Initialize
                    _NCO1_Initialize
              _OSCILLATOR_Initialize
             _PIN_MANAGER_Initialize
                     _PMD_Initialize
                    _TMR1_Initialize
 ---------------------------------------------------------------------------------
 (2) _TMR1_Initialize                                      2     2      0     174
                                             25 COMRAM     2     2      0
           _TMR1_SetInterruptHandler
 ---------------------------------------------------------------------------------
 (1) _TMR1_SetInterruptHandler                             3     0      3     174
                                             22 COMRAM     3     0      3
 ---------------------------------------------------------------------------------
 (2) _PMD_Initialize                                       0     0      0       0
 ---------------------------------------------------------------------------------
 (2) _PIN_MANAGER_Initialize                               0     0      0       0
 ---------------------------------------------------------------------------------
 (2) _OSCILLATOR_Initialize                                0     0      0       0
 ---------------------------------------------------------------------------------
 (2) _NCO1_Initialize                                      0     0      0       0
 ---------------------------------------------------------------------------------
 (2) _INTERRUPT_Initialize                                 0     0      0       0
 ---------------------------------------------------------------------------------
 (2) _FVR_Initialize                                       0     0      0       0
 ---------------------------------------------------------------------------------
 (2) _DAC1_Initialize                                      0     0      0       0
 ---------------------------------------------------------------------------------
 (2) _CMP2_Initialize                                      0     0      0       0
 ---------------------------------------------------------------------------------
 (2) _CMP1_Initialize                                      0     0      0       0
 ---------------------------------------------------------------------------------
 (2) _ADCC_Initialize                                      0     0      0       0
 ---------------------------------------------------------------------------------
 Estimated maximum stack depth 3
 ---------------------------------------------------------------------------------
 (Depth) Function   	        Calls       Base Space   Used Autos Params    Refs
 ---------------------------------------------------------------------------------
 (4) _INTERRUPT_InterruptManager                           4     4      0     240
                                             18 COMRAM     4     4      0
                           _TMR1_ISR
 ---------------------------------------------------------------------------------
 (5) _TMR1_ISR                                             0     0      0     240
                      _TMR1_CallBack
                    _TMR1_WriteTimer
 ---------------------------------------------------------------------------------
 (6) _TMR1_WriteTimer                                      2     0      2     240
                                              0 COMRAM     2     0      2
 ---------------------------------------------------------------------------------
 (6) _TMR1_CallBack                                        0     0      0       0
                   Absolute function *
       _TMR1_DefaultInterruptHandler *
                            _doAudio *
 ---------------------------------------------------------------------------------
 (7) _doAudio                                             18    18      0       0
                                              0 COMRAM    18    18      0
 ---------------------------------------------------------------------------------
 (7) _TMR1_DefaultInterruptHandler                         0     0      0       0
 ---------------------------------------------------------------------------------
 (7) Absolute function(Fake)                               0     0      0       0
 ---------------------------------------------------------------------------------
 Estimated maximum stack depth 7
 ---------------------------------------------------------------------------------

 Call Graph Graphs:

 _main (ROOT)
   _SYSTEM_Initialize
     _ADCC_Initialize
     _CMP1_Initialize
     _CMP2_Initialize
     _DAC1_Initialize
     _FVR_Initialize
     _INTERRUPT_Initialize
     _NCO1_Initialize
     _OSCILLATOR_Initialize
     _PIN_MANAGER_Initialize
     _PMD_Initialize
     _TMR1_Initialize
       _TMR1_SetInterruptHandler
   _TMR1_SetInterruptHandler
   _readPot
     _ADCC_GetConversionResult
     _ADCC_IsConversionDone
     _ADCC_StartConversion
     ___almod
       _rand (ARG)
         ___omul
     ___awmod
     ___lldiv
     ___lmul
     _rand
       ___omul

 _INTERRUPT_InterruptManager (ROOT)
   _TMR1_ISR
     _TMR1_CallBack
       Absolute function(Fake) *
       _TMR1_DefaultInterruptHandler *
       _doAudio *
     _TMR1_WriteTimer

 Address spaces:
Name               Size   Autos  Total    Cost      Usage
BIGRAM            1FFF      0     640      69       19.5%
EEDATA             400      0       0       0        0.0%
BITBANK36          100      0       0      67        0.0%
BANK36             100      0       0      68        0.0%
BITBANK35          100      0       0      65        0.0%
BANK35             100      0       0      66        0.0%
BITBANK34          100      0       0      63        0.0%
BANK34             100      0       0      64        0.0%
BITBANK33          100      0       0      61        0.0%
BANK33             100      0       0      62        0.0%
BITBANK32          100      0       0      59        0.0%
BANK32             100      0       0      60        0.0%
BITBANK31          100      0       0      57        0.0%
BANK31             100      0       0      58        0.0%
BITBANK30          100      0       0      55        0.0%
BANK30             100      0       0      56        0.0%
BITBANK29          100      0       0      53        0.0%
BANK29             100      0       0      54        0.0%
BITBANK28          100      0       0      51        0.0%
BANK28             100      0       0      52        0.0%
BITBANK27          100      0       0      49        0.0%
BANK27             100      0       0      50        0.0%
BITBANK26          100      0       0      47        0.0%
BANK26             100      0       0      48        0.0%
BITBANK25          100      0       0      45        0.0%
BANK25             100      0       0      46        0.0%
BITBANK24          100      0       0      43        0.0%
BANK24             100      0       0      44        0.0%
BITBANK23          100      0       0      41        0.0%
BANK23             100      0       0      42        0.0%
BITBANK22          100      0       0      39        0.0%
BANK22             100      0       0      40        0.0%
BITBANK21          100      0       0      37        0.0%
BANK21             100      0       0      38        0.0%
BITBANK20          100      0       0      35        0.0%
BANK20             100      0       0      36        0.0%
BITBANK19          100      0       0      33        0.0%
BANK19             100      0       0      34        0.0%
BITBANK18          100      0       0      31        0.0%
BANK18             100      0       0      32        0.0%
BITBANK17          100      0       0      29        0.0%
BANK17             100      0       0      30        0.0%
BITBANK16          100      0       0      27        0.0%
BANK16             100      0       0      28        0.0%
BITBANK15          100      0       0      25        0.0%
BANK15             100      0       0      26        0.0%
BITBANK14          100      0       0      23        0.0%
BANK14             100      0       0      24        0.0%
BITBANK13          100      0       0      21        0.0%
BANK13             100      0       0      22        0.0%
BITBANK12          100      0       0      19        0.0%
BANK12             100      0       0      20        0.0%
BITBANK11          100      0       0      17        0.0%
BANK11             100      0       0      18        0.0%
BITBANK10          100      0       0      15        0.0%
BANK10             100      0       0      16        0.0%
BITBANK9           100      0       0      13        0.0%
BANK9              100      0       0      14        0.0%
BITBANK8           100      0       0      11        0.0%
BANK8              100      0       0      12        0.0%
BITBANK7           100      0       0       9        0.0%
BANK7              100      0       0      10        0.0%
BITBANK6           100      0       0       7        0.0%
BANK6              100      0       0       8        0.0%
BITBANK5            A0      0       0       4        0.0%
BANK5               A0     20      91       5       90.6%
BITCOMRAM           5F      0       0       0        0.0%
COMRAM              5F     32      49       1       76.8%
BITSFR_5             0      0       0     200        0.0%
SFR_5                0      0       0     200        0.0%
BITSFR_4             0      0       0     200        0.0%
SFR_4                0      0       0     200        0.0%
BITSFR_3             0      0       0     200        0.0%
SFR_3                0      0       0     200        0.0%
BITSFR_2             0      0       0     200        0.0%
SFR_2                0      0       0     200        0.0%
BITSFR_1             0      0       0     200        0.0%
SFR_1                0      0       0     200        0.0%
BITSFR               0      0       0     200        0.0%
SFR                  0      0       0     200        0.0%
STACK                0      0       0       2        0.0%
NULL                 0      0       0       0        0.0%
ABS                  0      0      DA       6        0.0%
DATA                 0      0     71A       3        0.0%
CODE                 0      0       0       0        0.0%


Microchip Technology PIC18 Macro Assembler V2.10 build 88905656 
Symbol Table                                                                                   Fri Apr 17 23:07:14 2020

                                       l7 1414                               __CFG_CP$OFF 000000  
                                      l17 1402                                        l82 1328  
                       ??_CMP1_Initialize 0517                                        l76 12B0  
                                      l79 1366                    __end_of_FVR_Initialize 1416  
                             __CFG_LVP$ON 000000                           _DAC1_Initialize 13F8  
                                     l143 1154                                       l231 1394  
                                     l225 11B0                                       l234 13AA  
                                     l404 13BE                                       l228 13F6  
                                     l335 13E6                                       l319 13D2  
                                     l418 1418                                       l371 1250  
                                     l620 0F56                                       l613 10D0  
                                     l614 10E8                                       l619 0F26  
                                     l636 1002                                       l629 0FEA  
                                     l558 06B2                                       l567 0BEC  
                                     l596 1304                                       l694 0DF4  
                                     l846 0EA8                                       _cm1 0543  
                                     _cm2 0542                           _timer1ReloadVal 05EF  
                                     _bot 05B4                                       _ind 0580  
                                     _out 05B6                                       _top 053B  
                 __size_of_PMD_Initialize 0024                              ___awmod@sign 051C  
                                     prod 0004F3                                       tosl 0004FD  
                                     wreg 0004E8                             __CFG_BBEN$OFF 000000  
                            __CFG_ZCD$OFF 000000                                      l2101 1294  
                                    l2111 12A8                                      l2103 1298  
                                    l1401 1416                                      l2113 12AC  
                                    l2105 129C                                      l1411 1108  
                                    l1403 1306                                      l2107 12A0  
                                    l2211 0EB6                                      l1421 1146  
                                    l1413 113E                                      l1405 10EA  
                                    l2109 12A4                                      l2221 13F0  
                                    l2301 0DCC                                      l2213 0EC4  
                                    l1431 1156                                      l1423 1148  
                                    l1415 1140                                      l1407 1102  
                                    l2223 13F4                                      l2303 0DDC  
                                    l2311 0E08                                      l2215 0EE4  
                                    l1433 12E0                                      l1425 134C  
                                    l1417 1142                                      l1409 1106  
                                    l2225 1380                                      l2321 0E3C  
                                    l2313 0E10                                      l2241 1088  
                                    l2217 0EF6                                      l2209 0EAA  
                                    l1281 0CFE                                      l2233 0BEE  
                                    l2401 0A52                                      l1427 13C0  
                                    l1435 1302                                      l1419 1144  
                                    l2219 13EA                                      l2331 0E78  
                                    l2323 0E44                                      l2315 0E14  
                                    l2307 0DF6                                      l2251 0F68  
                                    l2243 1096                                      l2235 0CA4  
                                    l2411 0B7C                                      l2403 0AB4  
                                    l1429 13D4                                      l2093 1284  
                                    l2229 1396                                      l2333 0E7E  
                                    l2325 0E4C                                      l2317 0E22  
                                    l2309 0DFA                                      l2261 0FAA  
                                    l2253 0F7E                                      l2245 10A6  
                                    l2413 0B98                                      l2405 0B1A  
                                    l2421 1340                                      l2095 1288  
                                    l2271 0D00                                      l2327 0E5A  
                                    l2335 0E84                                      l2319 0E2A  
                                    l2263 0FC8                                      l2255 0F86  
                                    l2247 10B0                                      l2239 1078  
                                    l2415 0BE8                                      l2407 0B1E  
                                    l2351 06F2                                      l2343 0646  
                                    l2097 128C                                      l2281 0D36  
                                    l2273 0D04                                      l2337 0E94  
                                    l2329 0E70                                      l2265 0FD8  
                                    l2257 0F92                                      l2249 0F58  
                                    l2409 0B3A                                      l2361 07A6  
                                    l2353 071A                                      l2345 0696  
                                    l2417 132A                                      l2099 1290  
                                    l2291 0D7E                                      l2283 0D46  
                                    l2275 0D14                                      l2339 0E9C  
                                    l2267 0FDA                                      l2259 0FA0  
                                    l2371 0912                                      l2363 08E2  
                                    l2355 0744                                      l2347 06A6  
                                    l2419 133E                                      l1397 140E  
                                    l2293 0D9C                                      l2285 0D5C  
                                    l2277 0D24                                      l2269 0FE4  
                                    l2381 094E                                      l2365 08FC  
                                    l2373 0918                                      l2357 076C  
                                    l2349 06D0                                      l1399 13F8  
                                    l2295 0DAC                                      l2287 0D64  
                                    l2279 0D28                                      l2391 09D8  
                                    l2383 0958                                      l2375 0928  
                                    l2367 0902                                      l2359 0792  
                                    l1825 13AC                                      l2297 0DB6  
                                    l2289 0D70                                      l2393 09E8  
                                    l2385 09BE                                      l2377 0938  
                                    l2369 090C                                      l2299 0DBC  
                                    l2387 09CA                                      l2379 0948  
                                    l1941 121A                                      l2389 09CE  
                    _ADCC_StartConversion 13E8                                      l1943 121C  
                                    l2399 09F2                                      l1945 1238  
                                    l1947 123A                                      l1939 1204  
                                    l1949 124A                                      u1500 0F26  
                                    u1501 0F22                                      _LATA 0004BE  
                                    u1510 1392                                      _LATB 0004BF  
                                    u1511 138C                                      _LATC 0004C0  
                                    u1520 1394                                      u1600 0D36  
                                    u1601 0D32                                      u1610 0D5C  
                                    u1530 0CEC                                      u1611 0D58  
                                    u1620 0D7E                                      u1700 0E94  
                                    u1540 1096                                      u1621 0D7A  
                                    u1701 0E90                                      u1541 1092  
                                    u1630 0D9C                                      u1550 10D0  
                                    u1631 0D98                                      u1551 10CC  
                                    u1535 0CDA                                      u1640 0DCC  
                                    u1560 0F7E                                      u1641 0DC8  
                                    u1561 0F7A                                      u1481 0EB0  
                                    u1650 0E08                                      u1570 0FA0  
                                    u1490 0EC4                                      u1810 0780  
                                    u1730 06A6                                      u1714 0662  
                                    u1651 0E04                                      u1571 0F9C  
                                    u1491 0EC0                                      u1811 0778  
                                    u1731 06A2                                      u1715 065C  
                                    u1660 0E22                                      u1580 0FC8  
                                    u1900 09BE                                      u1740 06C8  
                                    u1724 068A                                      u1661 0E1E  
                                    u1581 0FC4                                      u1901 09BA  
                                    u1741 06BE                                      u1725 0686  
                                    u1590 0D14                                      u1670 0E3C  
                                    u1830 07A6                                      u1591 0D10  
                                    u1671 0E38                                      u1831 07A2  
                                    u1680 0E5A                                      u1920 0A96  
                                    u1840 0800                                      u1808 075E  
                                    u1681 0E56                                      u1690 0E70  
                                    u1930 0AD4                                      u1850 0862  
                                    u1770 0730                         ??_CMP2_Initialize 0517  
                                    u1691 0E6C                                      u1931 0ACE  
                                    u1915 0A00                                      u1771 0728  
                                    u1755 06CC                                      u1940 0AD6  
                                    u1860 08C4                                      u1828 0784  
                                    u1925 0A8C                                      u1845 07F6  
                                    u1765 06E0                                      u1950 0B3A  
                                    u1870 0928                                      u1790 075A  
                                    u1951 0B36                                      u1871 0924  
                                    u1855 0858                                      u1791 0752  
                                    u1960 0B7C                                      u1880 0938  
                                    u1961 0B78                                      u1881 0934  
                                    u1865 08BA                                      u1890 0948  
                                    u1891 0944                                      u1788 0734  
                                    _PMD0 000060                                      _PMD1 000061  
                                    _LEDs 0590                                      _PMD3 000063  
                                    _PMD4 000064                                      _PMD5 000065  
                                    _PMD6 000066                                      _PMD7 000067  
                                    _PMD8 000068                                      _WPUA 000401  
                                    _WPUB 000409                                      _WPUC 000411  
                                    _WPUE 000421                             __CFG_FCMEN$ON 000000  
                                    _main 132A                                      _freq 05A8  
                                    _incr 0560                                      _last 05B0  
                                    _rand 0BEE                                      _seed 05B8  
                                    _temp 0533                                      _test 0549  
                                    fsr1h 0004E2                                      fsr2h 0004DA  
                                    fsr1l 0004E1                                      fsr2l 0004D9  
                                    _stop 053E                                      prodl 0004F3  
                                    start 001A                          ?_NCO1_Initialize 0501  
              ??_TMR1_SetInterruptHandler 051A                             __CFG_CSWEN$ON 000000  
                            ___param_bank 000000                           ?_FVR_Initialize 0501  
          __size_of_OSCILLATOR_Initialize 001C             __end_of_OSCILLATOR_Initialize 1368  
                                   _ADCAP 0003F0                                     _ADACT 0003F9  
                         __end_of___almod 0DF6                                     ?_main 0501  
                                   _ADCLK 0003FA                                     _ADCNT 0003E6  
                                   _ADPCH 0003EC                                     ?_rand 052F  
                                   _ADREF 0003F8                             __CFG_WDTE$OFF 000000  
                         __end_of___awmod 0EAA                                     _ADRPT 0003E7  
                         __end_of___lldiv 1004                                     _T1CLK 000321  
                                   _T1CON 00031E                            __CFG_DEBUG$OFF 000000  
                                   i2l401 1282                                     i2l407 141A  
                                   i2l425 11EA                                     i2l540 05AE  
                                   i2l543 0644                                     i2l385 12DE  
                                   i2l538 055C                                     i2l397 137E  
                                   _OSCEN 0000B3                           __end_of_doAudio 0646  
                                   _TMR1H 00031D                                     _TMR1L 00031C  
                                   _TRISA 0004C6                                     _TRISB 0004C7  
                                   _TRISC 0004C8                       ___lmul@multiplicand 051B  
                 ??_ADCC_IsConversionDone 0517                          __end_of_TMR1_ISR 1380  
                           __CFG_WRTB$OFF 000000                             __CFG_WRTC$OFF 000000  
                           __CFG_WRTD$OFF 000000                                     _decay 05AE  
                                   _mask1 05ED                                     _mask2 0548  
                                   _index 05A4                           __end_of_readPot 0BEE  
                   ?_ADCC_StartConversion 0501                        __CFG_MCLRE$EXTMCLR 000000  
                 __end_of_TMR1_Initialize 1252                                     pclath 0004FA  
                                   tablat 0004F5                                     status 0004D8  
                         _TMR1_WriteTimer 12B2                           __initialization 1004  
                            __end_of_main 134C                   __end_of_DAC1_Initialize 1404  
                            __end_of_rand 0D00                            __CFG_SAFEN$OFF 000000  
             ?_INTERRUPT_InterruptManager 0501                                    ??_main 0533  
                                  ??_rand 05C0                            __CFG_PR1WAY$ON 000000  
                           __activetblptr 000003                                    _ADACCH 0003E4  
                                  _ADACCL 0003E3                                    _ADACCU 0003E5  
                                  _ADACQH 0003EF                                    _ADACQL 0003EE  
                                  _ADCON0 0003F3                                    _ADCON1 0003F4  
                                  _ADCON2 0003F5                                    _ADCON3 0003F6  
                                  _ADERRH 0003DE                                    _CM1NCH 000072  
                                  _ADERRL 0003DD                                    _CM2NCH 000076  
                                  _CM1PCH 000073                                    _CM2PCH 000077  
                                  _ADLTHH 0003DA                                    _ACTCON 0000AC  
                                  _ADLTHL 0003D9                                    _ADRESH 0003EB  
                                  _ADRESL 0003EA                                    _ADPREH 0003F2  
                                  _ADPREL 0003F1                                    _ADSTAT 0003F7  
                                  _ADUTHH 0003DC                                    _ADUTHL 0003DB  
                                  _ANSELA 000400                                    _ANSELB 000408  
                                  _ANSELC 000410                                    _RB1I2C 000289  
                                  _T1GATE 000320                                    _RB2I2C 000288  
                                  _T1GCON 00031F                                    _RC3I2C 000287  
                                  _RC4I2C 000286                                    _RA4PPS 000205  
                 TMR1_WriteTimer@timerVal 0501                                    _ODCONA 000402  
                                  _ODCONB 00040A                                    _ODCONC 000412  
                                  _ODCONE 000422                                    i2l2201 11E6  
                                  i2l2115 1368                                    i2l2117 136A  
                                  i2l2119 137A                            __CFG_WDTCCS$SC 000000  
                                  i2l1901 053E                                    i2l2197 11CA  
                                  i2l1911 05D6                                    i2l1903 0554  
                                  i2l1831 001C                                    i2l2199 11D8  
                                  i2l1921 061A                                    i2l1913 05E6  
                                  i2l1905 056C                                    i2l1841 0084  
                                  i2l1833 0036                                    i2l1923 062C  
                                  i2l1915 05F6                                    i2l1907 0572  
                                  i2l1851 00D4                                    i2l1843 0098  
                                  i2l1835 0050                                    i2l1827 0000  
                                  i2l1917 0606                                    i2l1925 0630  
                                  i2l1909 059E                                    i2l1861 0134  
                                  i2l1853 00EC                                    i2l1845 00A0  
                                  i2l1837 0064                                    i2l1829 0014  
                                  i2l1927 063A                                    i2l1919 0618  
                                  i2l1871 0188                                    i2l1863 013C  
                                  i2l1855 0100                                    i2l1847 00B8  
                                  i2l1839 006C                                    i2l1881 01D8  
                                  i2l1873 019C                                    i2l1865 0154  
                                  i2l1857 0108                                    i2l1849 00CC  
                                  i2l1891 04FA                                    i2l1883 0324  
                                  i2l1875 01A4                                    i2l1867 0168  
                                  i2l1859 0120                                    i2l1971 12C8  
                                  i2l1893 0518                                    i2l1885 047C  
                                  i2l1877 01BC                                    i2l1869 0170  
                                  i2l1981 1268                                    i2l1973 12CE  
                                  i2l1965 12B2                                    i2l1895 051C  
                                  i2l1887 04AC                                    i2l1879 01D0  
                                  i2l1967 12C2                                    i2l1975 12D4  
                                  i2l1897 0532                                    i2l1889 04CA  
                                  i2l1977 12D8                                    i2l1969 12C4  
                                  _INLVLA 000404                                    _INLVLB 00040C  
                                  i2l1899 053A                                    i2l1979 1252  
                                  _INLVLC 000414                                    _INLVLE 000424  
                                  _FVRCON 0003D7                                    _OSCFRQ 0000B1  
              ??_ADCC_GetConversionResult 0519                            __CFG_XINST$OFF 000000  
    __end_of_TMR1_DefaultInterruptHandler 141C     __size_of_TMR1_DefaultInterruptHandler 0002  
            _TMR1_DefaultInterruptHandler 141A                                    _dacOff 053F  
                                  ___lmul 1078                                    ___omul 0EAA  
                               ??___almod 0531                            __CFG_STVREN$ON 000000  
                               ??___awmod 051B                                 ??___lldiv 051F  
                                  _botDel 05F1                                    _cosTab F7FF  
                                  _ledOff 0540                                 ??_doAudio 0501  
                                  clear_0 1040                                    clear_1 1052  
                                  clear_2 105E                                    _shift1 0547  
                                  _shift2 0546                           ___awmod@divisor 0519  
                                  _potVal 05A0                                    _topDel 0911  
                         ___awmod@counter 051B                           _ADCC_Initialize 1156  
                          _PMD_Initialize 1306                                 ??_readPot 05D0  
                            __pdataCOMRAM 0549                              __mediumconst F7FE  
                                  tblptrh 0004F7                                    tblptrl 0004F6  
                                  tblptru 0004F8                    ??_ADCC_StartConversion 0517  
TMR1_SetInterruptHandler@InterruptHandler 0517                   __end_of_TMR1_WriteTimer 12E0  
           __size_of_INTERRUPT_Initialize 0004                     __end_of_TMR1_CallBack 1284  
                        ?_TMR1_Initialize 0501                         _SYSTEM_Initialize 1284  
                              __accesstop 0560                   __end_of__initialization 1072  
                         _CMP1_Initialize 13D4                        ?_SYSTEM_Initialize 0501  
                           ___rparam_used 000001                            __pcstackCOMRAM 0501  
                            __pidataBANK5 1404                       ??_SYSTEM_Initialize 051C  
                        ?_DAC1_Initialize 0501                                 ?_TMR1_ISR 0501  
         fp__TMR1_DefaultInterruptHandler 0000             ?_TMR1_DefaultInterruptHandler 0501  
                  __end_of_PMD_Initialize 132A                           _CMP2_Initialize 13C0  
                              _delCounter 0539               ADCC_StartConversion@channel 0517  
               __end_of_SYSTEM_Initialize 12B2                           __CFG_IVT1WAY$ON 000000  
                              __pbssBANK5 0560                           __CFG_MVECEN$OFF 000000  
                              __pnvCOMRAM 0548                                   IVTBASEH 00045E  
                                 IVTBASEL 00045D                                   IVTBASEU 00045F  
                        ??_FVR_Initialize 0517                                   ?___lmul 0517  
                                 ?___omul 0517                                ??_TMR1_ISR 0513  
                         __CFG_PPS1WAY$ON 000000                   __end_of_ADCC_Initialize 11B2  
                                 _DAC1CON 00007F                                _botCounter 0537  
                                 _CM1CON0 000070                                   _CM1CON1 000071  
                                 _CM2CON0 000074                                   _CM2CON1 000075  
                                 _ADFLTRH 0003E2                                   _ADFLTRL 0003E1  
                     ___omul@multiplicand 051F                            ___lmul@product 051F  
                                 _ADPREVH 0003E9                                   _ADPREVL 0003E8  
                                 _ADSTPTH 0003E0                                   _ADSTPTL 0003DF  
                         ?_PMD_Initialize 0501                                   _NCO1CLK 000447  
                                 _NCO1CON 000446                       __CFG_PWRTS$PWRT_OFF 000000  
                                 _OSCCON1 0000AD                                   _OSCCON3 0000AF  
                                 _OSCTUNE 0000B0                                   i2u80_40 00CC  
                                 i2u80_41 00C8                                   i2u81_40 0100  
                                 i2u81_41 00FC                                   i2u90_40 05E6  
                                 i2u82_40 0134                                   i2u90_41 05E2  
                                 i2u82_41 0130                                   i2u91_40 05F6  
                                 i2u83_40 0168                                   i2u75_40 0014  
                                 i2u91_41 05F2                                   i2u83_41 0164  
                                 i2u75_41 0010                                   i2u92_40 062C  
                                 i2u84_40 019C                                   i2u76_40 002E  
                                 i2u92_41 0628                                   i2u84_41 0198  
                                 i2u76_41 0028                                   i2u85_40 01D0  
                                 i2u77_40 0030                                   i2u85_41 01CC  
                                 i2u93_45 0642                                   i2u93_47 0644  
                                 i2u86_40 0532                                   i2u78_40 0064  
                                 i2u86_41 052E                                   i2u78_41 0060  
                                 i2u87_40 0554                                   i2u79_40 0098  
                                 i2u87_41 0550                                   i2u79_41 0094  
                                 i2u88_40 056C                                   i2u88_41 0568  
                                 i2u89_40 059E                                   i2u89_41 059A  
                                 i2u99_40 12C2                                   i2u99_41 12BE  
                                 _SLRCONA 000403                                   _SLRCONB 00040B  
                                 _SLRCONC 000413            __size_of_ADCC_IsConversionDone 0016  
                 __end_of_CMP1_Initialize 13E8             __end_of_ADCC_IsConversionDone 1396  
                        ?_TMR1_WriteTimer 0501                              _clockCounter 05E0  
                                 __Hparam 0000                                   __Lparam 0000  
              __CFG_RSTOSC$HFINTOSC_64MHZ 000000                                   ___almod 0D00  
                 __end_of_CMP2_Initialize 13D4                           __size_of___lmul 0072  
                                 ___awmod 0DF6                           __size_of___omul 00AE  
                                 ___lldiv 0F58                                   _doAudio 0000  
                            readPot@temp1 05DC                                   _bitMask 05E4  
                                 __pcinit 1004                                   __ramtop 2500  
                __size_of_NCO1_Initialize 0026                                   __ptext0 132A  
                                 __ptext1 0646                                   __ptext2 0BEE  
                                 __ptext3 0EAA                                   __ptext4 1078  
                                 __ptext5 0F58                                   __ptext6 0DF6  
                                 __ptext7 0D00                                   __ptext8 13E8  
                                 __ptext9 1380            ??_TMR1_DefaultInterruptHandler 0501  
                         __CFG_WRTAPP$OFF 000000                                 _T1CONbits 00031E  
                   _OSCILLATOR_Initialize 134C                                   _readPot 0646  
                        ___awmod@dividend 0517         __size_of_TMR1_SetInterruptHandler 0014  
                ??_PIN_MANAGER_Initialize 0517                 ?_TMR1_SetInterruptHandler 0517  
                         __CFG_WRTSAF$OFF 000000                                   _potFlag 0545  
              __size_of_SYSTEM_Initialize 002E                      end_of_initialization 1072  
                          ___omul@product 0527                                _shiftCount 053D  
                         ___lldiv@divisor 051B                           ___lldiv@counter 0523  
                                 postdec1 0004E5                                   postdec2 0004DD  
                                 postinc0 0004EE                                   postinc2 0004DE  
                        ?_ADCC_Initialize 0501                     __CFG_WDTCPS$WDTCPS_31 000000  
                              fp__doAudio 0000                          ?_CMP1_Initialize 0501  
                        __CFG_FEXTOSC$OFF 000000                               _CM1CON0bits 000070  
                             _CM2CON0bits 000074              __end_of_INTERRUPT_Initialize 141A  
                        ?_CMP2_Initialize 0501                            __end_of___lmul 10EA  
                          __end_of___omul 0F58                             __pidataCOMRAM 141C  
                          __end_of_cosTab FFFF                         __size_of_TMR1_ISR 0018  
                  ?_OSCILLATOR_Initialize 0501         __size_of_ADCC_GetConversionResult 0016  
               ?_ADCC_GetConversionResult 0517                       start_initialization 1004  
         __size_of_PIN_MANAGER_Initialize 006C                         ??_NCO1_Initialize 0517  
           __size_of_ADCC_StartConversion 0010                                ivt0x8_base 0008  
                       ___omul@multiplier 0517                          __CFG_LPBOREN$OFF 000000  
                __size_of_TMR1_Initialize 004E                          ??_PMD_Initialize 0517  
                                ??___lmul 051F                                  ??___omul 0527  
                             __pdataBANK5 05E0                    __size_of_TMR1_CallBack 0032  
                             __pbssBIGRAM 05F1                  __size_of_DAC1_Initialize 000C  
                             __pbssCOMRAM 0533                             __pcstackBANK5 05C0  
                               __pnvBANK5 05EA                    _PIN_MANAGER_Initialize 10EA  
        __end_of_TMR1_SetInterruptHandler 13C0                             __pmediumconst F7FE  
                                ?___almod 05C8                                  ?___awmod 0517  
                                ?___lldiv 0517                                  ?_doAudio 0501  
                                _DAC1DATL 00007D              ??_INTERRUPT_InterruptManager 0513  
                        ___almod@dividend 05C8                    __CFG_BBSIZE$BBSIZE_512 000000  
                                ?_readPot 0501                               _NCO1CONbits 000446  
                                _NCO1ACCH 000441                                  _NCO1ACCL 000440  
                                _NCO1ACCU 000442                      _INTERRUPT_Initialize 1416  
                                _NCO1INCH 000444                                  _NCO1INCL 000443  
                                _NCO1INCU 000445                     _ADCC_IsConversionDone 1380  
                           _TMR1_CallBack 1252                                  _LATAbits 0004BE  
                                _LATBbits 0004BF                                  _PIE3bits 0004A1  
                                i2u100_40 1268                                  i2u100_41 1264  
                                i2u101_48 126E                                  i2u101_49 1282  
                __size_of_TMR1_WriteTimer 002E       __size_of_INTERRUPT_InterruptManager 0052  
                                i2u146_40 11D8                                  i2u146_41 11D4  
                                i2u147_40 11E6                                  i2u147_41 11E2  
                                _PIR3bits 0004B1                                  _TMR1_ISR 1368  
                       ??_TMR1_Initialize 051A                                _ADCON0bits 0003F3  
                              _ADCON1bits 0003F4                                _ADCON2bits 0003F5  
                              _ADCON3bits 0003F6                   __size_of_FVR_Initialize 0008  
                             _freqCounter 059C                               _INTCON0bits 0004D6  
                       ___lmul@multiplier 0517                                 copy_data0 1018  
                   ?_INTERRUPT_Initialize 0501                         ??_DAC1_Initialize 0517  
                          ?_TMR1_CallBack 0501                               _counterSave 05E6  
                              _ADSTATbits 0003F7                                  __Hrparam 0000  
        __end_of_ADCC_GetConversionResult 13AC                                  __Lrparam 0000  
                      __CFG_BOREN$SBORDIS 000000                   ??_OSCILLATOR_Initialize 0517  
                        __size_of___almod 00F6                          __size_of___awmod 00B4  
                         _NCO1_Initialize 12E0                          __size_of___lldiv 00AC  
                        __size_of_doAudio 0646                  _TMR1_SetInterruptHandler 13AC  
                   _TMR1_InterruptHandler 05EA                  __size_of_ADCC_Initialize 005C  
                        __size_of_readPot 05A8                                  __pivt0x8 0008  
                                _clockVal 0598                                  __ptext10 1396  
                                __ptext11 1284                                  __ptext20 13F8  
                                __ptext12 1204                                  __ptext21 13C0  
                                __ptext13 13AC                                _T1GCONbits 00031F  
                                __ptext30 0000                                  __ptext22 13D4  
                                __ptext14 1306                                  __ptext23 1156  
                                __ptext15 10EA                                  __ptext24 11B2  
                                __ptext16 134C                                  __ptext25 1368  
                                __ptext17 12E0                                  __ptext26 12B2  
                                __ptext18 1416                                  __ptext27 1252  
                                __ptext19 140E                                  __ptext28 141A  
                                __ptext29 0000                    ?_ADCC_IsConversionDone 0501  
                         ___almod@divisor 05CC                                  _freqIncr 05B2  
                         ___almod@counter 0531                                  _lastTemp 05AC  
                                _expScale 0594                             __size_of_main 0022  
                           __size_of_rand 0112                      __CFG_WDTCWS$WDTCWS_7 000000  
                __size_of_CMP1_Initialize 0014                        __CFG_BORV$VBOR_1P9 000000  
                                _potArray 0544                                  _whichDel 0541  
            __end_of_ADCC_StartConversion 13F8        __end_of_INTERRUPT_InterruptManager 1204  
              _INTERRUPT_InterruptManager 11B2                         ??_TMR1_WriteTimer 0503  
                __size_of_CMP2_Initialize 0014                                _FVRCONbits 0003D7  
                                readPot@i 05DA                    ??_INTERRUPT_Initialize 0517  
                         ??_TMR1_CallBack 0513                                  intlevel2 0000  
                        ___lldiv@dividend 0517                   ?_PIN_MANAGER_Initialize 0501  
                       __CFG_CLKOUTEN$OFF 000000                   __end_of_NCO1_Initialize 1306  
                _ADCC_GetConversionResult 1396                            _FVR_Initialize 140E  
                        ___lldiv@quotient 051F            __end_of_PIN_MANAGER_Initialize 1156  
                       ??_ADCC_Initialize 0517                              ___almod@sign 0532  
                         _TMR1_Initialize 1204  
